(lp0
(lp1
I4
aI4
aI4
aI4
aI4
aI4
aI4
aI4
aI4
aI4
aI4
aI2
aI2
aI2
aI2
aI2
aI2
aI2
aI2
aI2
aI2
aI7
aI7
aI7
aI7
aI7
aI7
aI7
aI7
aI7
aI7
aI7
aI7
aI7
aI7
aI7
aI6
aI6
aI6
aI6
aI6
aI6
aI6
aI8
aI8
aa(lp2
I4
aI4
aI4
aI4
aI4
aI4
aI4
aI4
aI4
aI4
aI2
aI2
aI2
aI2
aI2
aI2
aI2
aI2
aI2
aI2
aI2
aI10
aI10
aI10
aI10
aI12
aI12
aI12
aI12
aI12
aI8
aI8
aa(lp3
I4
aI4
aI4
aI2
aI2
aI2
aI2
aI1
aI1
aI1
aI1
aI1
aI1
aI1
aI1
aI0
aI0
aI0
aI0
aI0
aI0
aI0
aI0
aI0
aI0
aI0
aI8
aI8
aI8
aa(lp4
I4
aI4
aI4
aI4
aI4
aI4
aI2
aI2
aI2
aI2
aI2
aI2
aI2
aI6
aI6
aI6
aI6
aI6
aI6
aI6
aI6
aI6
aI6
aI6
aI6
aI6
aI6
aI8
aI8
aI8
aa(lp5
I4
aI4
aI4
aI4
aI4
aI4
aI4
aI2
aI2
aI2
aI2
aI2
aI2
aI2
aI2
aI2
aI2
aI0
aI0
aI0
aI0
aI0
aI0
aI0
aI1
aI1
aI1
aI1
aI0
aI0
aI0
aI8
aI8
aI8
aa(lp6
I4
aI4
aI4
aI4
aI2
aI2
aI2
aI2
aI2
aI2
aI2
aI2
aI2
aI2
aI2
aI2
aI2
aI2
aI2
aI2
aI10
aI10
aI10
aI10
aI10
aI10
aI10
aI12
aI12
aI12
aI12
aI12
aI9
aI9
aI8
aI8
aI8
aa(lp7
I4
aI4
aI4
aI4
aI4
aI4
aI4
aI4
aI4
aI4
aI4
aI4
aI4
aI4
aI4
aI8
aI8
aI8
aI8
aI2
aI2
aI2
aI2
aI2
aI2
aI2
aI2
aI2
aI6
aI6
aI6
aI6
aI6
aI6
aI6
aI6
aI6
aI6
aI6
aI6
aI9
aI9
aI9
aI5
aI5
aI5
aI5
aa(lp8
I4
aI4
aI4
aI4
aI4
aI4
aI4
aI2
aI2
aI2
aI2
aI2
aI2
aI2
aI6
aI6
aI6
aI6
aI6
aI6
aI6
aI6
aI6
aI6
aI6
aI6
aI6
aI6
aI6
aI6
aI6
aI9
aI9
aI9
aI9
aI8
aI8
aa(lp9
I4
aI4
aI4
aI4
aI4
aI4
aI4
aI4
aI4
aI4
aI4
aI4
aI4
aI4
aI4
aI4
aI4
aI2
aI2
aI2
aI2
aI2
aI2
aI2
aI2
aI2
aI6
aI6
aI6
aI6
aI6
aI6
aI6
aI6
aI6
aI9
aI9
aI9
aI5
aI5
aI5
aI5
aI5
aI8
aI8
aI8
aa(lp10
I4
aI4
aI4
aI4
aI4
aI4
aI2
aI2
aI2
aI2
aI2
aI2
aI2
aI2
aI2
aI2
aI2
aI2
aI2
aI2
aI6
aI6
aI6
aI6
aI8
aI8
aa(lp11
I4
aI4
aI4
aI4
aI4
aI4
aI4
aI4
aI8
aI8
aI8
aI8
aI2
aI2
aI2
aI2
aI2
aI2
aI2
aI6
aI6
aI6
aI6
aI6
aI12
aI12
aI12
aI12
aI12
aI9
aa(lp12
I4
aI4
aI4
aI4
aI4
aI4
aI4
aI4
aI8
aI8
aI8
aI8
aI2
aI2
aI2
aI2
aI2
aI2
aI2
aI2
aI2
aI10
aI10
aI10
aI12
aI12
aI9
aI9
aa(lp13
I4
aI4
aI4
aI4
aI4
aI4
aI4
aI4
aI4
aI4
aI8
aI8
aI8
aI8
aI2
aI2
aI2
aI2
aI2
aI2
aI10
aI10
aI10
aI12
aI12
aI9
aI9
aa(lp14
I4
aI4
aI4
aI4
aI4
aI4
aI4
aI4
aI4
aI4
aI8
aI8
aI8
aI8
aI2
aI2
aI2
aI2
aI2
aI2
aI2
aI10
aI10
aI10
aI12
aI12
aI12
aI12
aI12
aI9
aI9
aa(lp15
I4
aI4
aI4
aI4
aI4
aI4
aI4
aI2
aI2
aI2
aI2
aI2
aI2
aI2
aI2
aI2
aI2
aI2
aI6
aI6
aI6
aI6
aI6
aI6
aI6
aI6
aI6
aI6
aI6
aI9
aI9
aI9
aI8
aI8
aa(lp16
I4
aI4
aI4
aI2
aI2
aI2
aI2
aI2
aI2
aI6
aI6
aI6
aI6
aI6
aI6
aI6
aI6
aI6
aI6
aI6
aI6
aI6
aI8
aI8
aI9
aI9
aI9
aI9
aa(lp17
I4
aI4
aI4
aI8
aI8
aI8
aI8
aI2
aI2
aI2
aI2
aI2
aI2
aI2
aI2
aI2
aI2
aI2
aI11
aI11
aI11
aa(lp18
I4
aI4
aI4
aI4
aI4
aI4
aI4
aI4
aI4
aI4
aI4
aI2
aI2
aI2
aI2
aI2
aI2
aI2
aI6
aI6
aI6
aI6
aI6
aI6
aI6
aI6
aI9
aI9
aI9
aI5
aI5
aI5
aI5
aI5
aI5
aI8
aI8
aI8
aI9
aa(lp19
I4
aI4
aI4
aI8
aI8
aI8
aI8
aI2
aI2
aI2
aI2
aI2
aI2
aI6
aI6
aI6
aI6
aI6
aI6
aI6
aI6
aI6
aI9
aI9
aI9
aI9
aI5
aI5
aI5
aI5
aI11
aI11
aI11
aa(lp20
I7
aI7
aI7
aI7
aI7
aI2
aI2
aI2
aI2
aI2
aI2
aI2
aI11
aI11
aI8
aI8
aa(lp21
I4
aI4
aI4
aI4
aI4
aI4
aI4
aI4
aI4
aI4
aI2
aI2
aI2
aI2
aI2
aI2
aI2
aI2
aI2
aI2
aI2
aI2
aI2
aI2
aI6
aI6
aI6
aI6
aI6
aI6
aI6
aI6
aI6
aI6
aI6
aI5
aI5
aI5
aI5
aI8
aI8
aI8
aa(lp22
I4
aI4
aI4
aI4
aI4
aI4
aI4
aI2
aI2
aI2
aI2
aI2
aI2
aI2
aI2
aI2
aI2
aI2
aI6
aI6
aI6
aI6
aI6
aI6
aI6
aI6
aI6
aI6
aI6
aI6
aI6
aI6
aI6
aI8
aI8
aI8
aa(lp23
I4
aI4
aI4
aI2
aI2
aI2
aI2
aI2
aI11
aI11
aI11
aI11
aI11
aI8
aI8
aa(lp24
I4
aI4
aI4
aI4
aI4
aI2
aI2
aI2
aI2
aI7
aI7
aI7
aI7
aI7
aI7
aI7
aI7
aI7
aI7
aI7
aI7
aI6
aI6
aI6
aI6
aI6
aI11
aI11
aI11
aI5
aI5
aI5
aI8
aI8
aa(lp25
I4
aI4
aI4
aI4
aI4
aI4
aI4
aI4
aI4
aI8
aI8
aI8
aI8
aI2
aI2
aI2
aI2
aI2
aI2
aI10
aI10
aI10
aI12
aI12
aI9
aI9
aa(lp26
I4
aI4
aI4
aI4
aI2
aI2
aI2
aI2
aI2
aI2
aI2
aI2
aI2
aI2
aI2
aI6
aI6
aI6
aI6
aI5
aI5
aI5
aI5
aI5
aI5
aI8
aI8
aa(lp27
I4
aI4
aI4
aI4
aI4
aI4
aI4
aI4
aI2
aI2
aI2
aI2
aI2
aI2
aI2
aI2
aI6
aI6
aI6
aI6
aI6
aI6
aI6
aI6
aI5
aI5
aI5
aI8
aI8
aI8
aa(lp28
I4
aI4
aI4
aI4
aI4
aI4
aI2
aI2
aI2
aI2
aI2
aI2
aI2
aI2
aI2
aI2
aI2
aI2
aI10
aI10
aI10
aI10
aI12
aI12
aI12
aI12
aI12
aI12
aI12
aI9
aI9
aI9
aI9
aI8
aI8
aI8
aa(lp29
I4
aI4
aI4
aI4
aI4
aI4
aI2
aI2
aI2
aI2
aI2
aI2
aI2
aI2
aI6
aI6
aI6
aI6
aI6
aI6
aI6
aI6
aI6
aI6
aI5
aI5
aI5
aI5
aI8
aI8
aI8
aa(lp30
I4
aI4
aI4
aI4
aI4
aI4
aI2
aI2
aI2
aI2
aI2
aI2
aI2
aI2
aI2
aI2
aI2
aI2
aI2
aI2
aI2
aI10
aI10
aI10
aI10
aI12
aI12
aI12
aI12
aI9
aI9
aI8
aI8
aI8
aa(lp31
I4
aI4
aI4
aI4
aI4
aI4
aI4
aI4
aI4
aI4
aI2
aI2
aI2
aI2
aI2
aI2
aI2
aI2
aI2
aI2
aI2
aI2
aI10
aI10
aI10
aI10
aI10
aI10
aI12
aI12
aI12
aI12
aI12
aI9
aI9
aI8
aI8
aI8
aa(lp32
I4
aI4
aI4
aI4
aI8
aI8
aI8
aI8
aI2
aI2
aI2
aI2
aI2
aI2
aI2
aI6
aI6
aI6
aI6
aI6
aI6
aI6
aI6
aI6
aI6
aI6
aa(lp33
I4
aI4
aI4
aI4
aI4
aI4
aI4
aI4
aI4
aI4
aI4
aI4
aI4
aI4
aI4
aI4
aI4
aI4
aI8
aI8
aI8
aI8
aI2
aI2
aI2
aI2
aI2
aI2
aI2
aI2
aI2
aI2
aI2
aI2
aI2
aI2
aI6
aI6
aI6
aI6
aI6
aI6
aI9
aI9
aa(lp34
I4
aI4
aI4
aI8
aI8
aI8
aI8
aI2
aI2
aI2
aI2
aI2
aI2
aI2
aI2
aI2
aI6
aI6
aI6
aI6
aI6
aI6
aI6
aI6
aI6
aI6
aI6
aI6
aI9
aI9
aI9
aI9
aa(lp35
I4
aI4
aI4
aI4
aI4
aI4
aI4
aI2
aI2
aI2
aI2
aI2
aI2
aI2
aI2
aI2
aI2
aI2
aI2
aI2
aI2
aI2
aI2
aI2
aI2
aI6
aI6
aI6
aI12
aI12
aI12
aI12
aI12
aI9
aI9
aI8
aI8
aI8
aa(lp36
I4
aI4
aI4
aI4
aI4
aI4
aI4
aI4
aI2
aI2
aI2
aI2
aI2
aI2
aI2
aI2
aI2
aI2
aI10
aI10
aI10
aI10
aI10
aI10
aI10
aI12
aI12
aI8
aI8
aI8
aI8
aI9
aI9
aa(lp37
I4
aI4
aI4
aI4
aI2
aI2
aI2
aI2
aI2
aI2
aI2
aI10
aI10
aI10
aI10
aI12
aI12
aI9
aI8
aI8
aI8
aI8
aa(lp38
I4
aI4
aI4
aI4
aI4
aI4
aI4
aI4
aI4
aI4
aI4
aI4
aI4
aI4
aI4
aI4
aI4
aI4
aI4
aI2
aI2
aI2
aI2
aI2
aI2
aI2
aI2
aI2
aI2
aI6
aI6
aI6
aI6
aI6
aI6
aI6
aI6
aI6
aI6
aI6
aI6
aI9
aI9
aI9
aI8
aI8
aI8
aa(lp39
I4
aI4
aI4
aI4
aI4
aI4
aI4
aI8
aI8
aI8
aI2
aI2
aI2
aI2
aI2
aI2
aI2
aI10
aI10
aI10
aI10
aI10
aI10
aI10
aI12
aI12
aI12
aI12
aI12
aI9
aI9
aI9
aa(lp40
I4
aI4
aI4
aI4
aI4
aI4
aI4
aI4
aI4
aI4
aI4
aI4
aI4
aI4
aI4
aI4
aI2
aI2
aI2
aI2
aI2
aI2
aI2
aI2
aI2
aI1
aI1
aI1
aI1
aI0
aI0
aI0
aI0
aI0
aI0
aI0
aI0
aI8
aI8
aa(lp41
I4
aI4
aI4
aI4
aI4
aI4
aI4
aI4
aI4
aI4
aI4
aI4
aI4
aI4
aI4
aI2
aI2
aI2
aI2
aI2
aI2
aI2
aI2
aI2
aI6
aI6
aI6
aI6
aI6
aI6
aI6
aI6
aI6
aI6
aI6
aI6
aI6
aI6
aI6
aI6
aI6
aI6
aI6
aI5
aI5
aI5
aI5
aI5
aI9
aI9
aI9
aI9
aI8
aI8
aI8
aa(lp42
I4
aI4
aI4
aI4
aI4
aI4
aI4
aI4
aI4
aI4
aI4
aI4
aI4
aI2
aI2
aI2
aI2
aI2
aI2
aI2
aI2
aI2
aI2
aI7
aI7
aI7
aI7
aI7
aI7
aI7
aI6
aI6
aI6
aI6
aI6
aI12
aI12
aI12
aI12
aI9
aI9
aI9
aI11
aI11
aI11
aI5
aI5
aI5
aI5
aI5
aI8
aI8
aa(lp43
I4
aI4
aI4
aI4
aI8
aI8
aI8
aI8
aI2
aI2
aI2
aI2
aI2
aI2
aI2
aI6
aI6
aI6
aI6
aI6
aI6
aI6
aI6
aI6
aI6
aI6
aI6
aI9
aI9
aI9
aI5
aI5
aa(lp44
I4
aI4
aI4
aI4
aI4
aI4
aI4
aI4
aI4
aI4
aI2
aI2
aI2
aI2
aI2
aI2
aI2
aI6
aI6
aI6
aI6
aI6
aI6
aI6
aI6
aI6
aI6
aI6
aI6
aI6
aI6
aI5
aI5
aI5
aI5
aI5
aI8
aI8
aI8
aa(lp45
I4
aI4
aI4
aI4
aI4
aI2
aI2
aI2
aI2
aI2
aI2
aI2
aI8
aI8
aI8
aI0
aI0
aI0
aI0
aI0
aI5
aI5
aI5
aI5
aI6
aI6
aI6
aI6
aI6
aI6
aI6
aI6
aI6
aa(lp46
I4
aI4
aI4
aI2
aI2
aI2
aI2
aI2
aI2
aI2
aI2
aI6
aI6
aI6
aI6
aI6
aI6
aI6
aI6
aI6
aI6
aI6
aI6
aI6
aI6
aI6
aI6
aI6
aI11
aI11
aI11
aI8
aI8
aI9
aI9
aI9
aI9
aa(lp47
I0
aI0
aI0
aI0
aI0
aI0
aI0
aI0
aI5
aI5
aI5
aI8
aI8
aI8
aa(lp48
I4
aI4
aI4
aI4
aI4
aI4
aI4
aI4
aI4
aI4
aI4
aI4
aI4
aI4
aI4
aI4
aI4
aI2
aI2
aI2
aI2
aI2
aI2
aI2
aI2
aI2
aI2
aI2
aI6
aI6
aI6
aI6
aI9
aI9
aI9
aI8
aI8
aa(lp49
I4
aI4
aI4
aI4
aI4
aI4
aI2
aI2
aI2
aI2
aI2
aI2
aI2
aI2
aI2
aI10
aI10
aI10
aI10
aI10
aI10
aI12
aI12
aI12
aI12
aI12
aI9
aI9
aI8
aI8
aI8
aa(lp50
I4
aI4
aI4
aI4
aI4
aI4
aI4
aI4
aI4
aI4
aI8
aI8
aI8
aI8
aI2
aI2
aI2
aI2
aI2
aI2
aI11
aI11
aI11
aI11
aa(lp51
I4
aI4
aI4
aI4
aI4
aI2
aI2
aI2
aI2
aI2
aI2
aI2
aI2
aI6
aI6
aI6
aI6
aI6
aI5
aI5
aI8
aI8
aa(lp52
I4
aI4
aI4
aI4
aI4
aI4
aI2
aI2
aI2
aI2
aI2
aI2
aI6
aI6
aI6
aI6
aI6
aI5
aI5
aI8
aI8
aI8
aI8
aa(lp53
I4
aI4
aI4
aI4
aI4
aI4
aI4
aI4
aI8
aI8
aI8
aI8
aI2
aI2
aI2
aI2
aI2
aI2
aI2
aI6
aI6
aI6
aI12
aI12
aI12
aI12
aI12
aI9
aI9
aa(lp54
I4
aI4
aI4
aI2
aI2
aI2
aI2
aI2
aI2
aI2
aI10
aI10
aI10
aI12
aI12
aI9
aI9
aI8
aI8
aa(lp55
I4
aI4
aI4
aI4
aI4
aI4
aI4
aI4
aI4
aI4
aI4
aI4
aI8
aI8
aI8
aI8
aI2
aI2
aI2
aI2
aI2
aI2
aI2
aI6
aI6
aI6
aI6
aI6
aI6
aI6
aI6
aI9
aI9
aa(lp56
I4
aI4
aI4
aI4
aI4
aI4
aI4
aI4
aI4
aI8
aI8
aI8
aI8
aI2
aI2
aI2
aI2
aI2
aI2
aI1
aI1
aI1
aI1
aI5
aI5
aI5
aI5
aI5
aI0
aI0
aI0
aI0
aI0
aI0
aI0
aa(lp57
I4
aI4
aI4
aI4
aI4
aI4
aI4
aI4
aI2
aI2
aI2
aI2
aI2
aI2
aI2
aI6
aI6
aI6
aI6
aI6
aI6
aI6
aI6
aI6
aI6
aI6
aI5
aI5
aI5
aI5
aI8
aI8
aI8
aa(lp58
I4
aI4
aI4
aI4
aI4
aI4
aI4
aI4
aI8
aI8
aI8
aI8
aI2
aI2
aI2
aI2
aI2
aI2
aI2
aI2
aI2
aI2
aI2
aI2
aI2
aI2
aI2
aI6
aI6
aI6
aI6
aI6
aI6
aI12
aI12
aI12
aI12
aI12
aI12
aI9
aI9
aI9
aI9
aI9
aI9
aI5
aI5
aI5
aI5
aI11
aI11
aI11
aa(lp59
I4
aI4
aI4
aI4
aI4
aI4
aI4
aI4
aI4
aI4
aI2
aI2
aI2
aI2
aI6
aI6
aI6
aI6
aI6
aI6
aI6
aI6
aI6
aI6
aI6
aI6
aI6
aI6
aI9
aI9
aI9
aI5
aI5
aI5
aI5
aI5
aI8
aI8
aI8
aa(lp60
I4
aI4
aI4
aI4
aI4
aI4
aI4
aI4
aI4
aI8
aI8
aI8
aI8
aI2
aI2
aI2
aI2
aI2
aI2
aI2
aI2
aI2
aI10
aI10
aI10
aI10
aI10
aI10
aI12
aI12
aI9
aI9
aa(lp61
I4
aI4
aI4
aI4
aI2
aI2
aI2
aI6
aI6
aI6
aI6
aI6
aI6
aI6
aI6
aI6
aI6
aI6
aI6
aI9
aI9
aI9
aI8
aI8
aa(lp62
I4
aI4
aI4
aI4
aI4
aI4
aI4
aI4
aI8
aI8
aI8
aI8
aI2
aI2
aI2
aI2
aI2
aI2
aI1
aI1
aI1
aI1
aI1
aI1
aa(lp63
I4
aI4
aI4
aI4
aI4
aI4
aI4
aI4
aI4
aI8
aI8
aI8
aI8
aI2
aI2
aI2
aI2
aI2
aI2
aI2
aI2
aI10
aI10
aI10
aI10
aI10
aI12
aI12
aI12
aI12
aI12
aI9
aI9
aa(lp64
I4
aI4
aI4
aI4
aI4
aI4
aI4
aI4
aI4
aI4
aI4
aI4
aI8
aI8
aI8
aI8
aI2
aI2
aI2
aI2
aI2
aI10
aI10
aI12
aI12
aI12
aI12
aI12
aI9
aI9
aa(lp65
I4
aI4
aI4
aI2
aI2
aI2
aI2
aI2
aI2
aI6
aI6
aI6
aI0
aI0
aI0
aI8
aI8
aI8
aa(lp66
I4
aI4
aI4
aI8
aI8
aI8
aI8
aI2
aI2
aI2
aI2
aI2
aI2
aI2
aI2
aI10
aI10
aI10
aI12
aI12
aI9
aI9
aa(lp67
I4
aI4
aI4
aI4
aI4
aI4
aI4
aI4
aI4
aI4
aI4
aI4
aI2
aI2
aI2
aI2
aI2
aI2
aI2
aI2
aI2
aI2
aI2
aI2
aI2
aI2
aI2
aI2
aI2
aI6
aI6
aI6
aI6
aI6
aI6
aI6
aI6
aI9
aI9
aI9
aI8
aI8
aI8
aa(lp68
I4
aI4
aI4
aI4
aI4
aI4
aI4
aI4
aI4
aI4
aI8
aI8
aI8
aI8
aI2
aI2
aI2
aI2
aI2
aI2
aI2
aI2
aI2
aI2
aI2
aI2
aI2
aI6
aI6
aI6
aI6
aI6
aI6
aI6
aI6
aI6
aI6
aI6
aI9
aI9
aI9
aI5
aI5
aI5
aI5
aI5
aa(lp69
I4
aI4
aI4
aI8
aI8
aI8
aI8
aI2
aI2
aI2
aI2
aI2
aI2
aI2
aI2
aI2
aI2
aI2
aI2
aI2
aI2
aI2
aI6
aI6
aI6
aI6
aI6
aI6
aI6
aI6
aI6
aI6
aI6
aI6
aI6
aI6
aI6
aI6
aI5
aI5
aI5
aI5
aa(lp70
I4
aI4
aI4
aI4
aI4
aI2
aI2
aI2
aI2
aI2
aI2
aI2
aI2
aI2
aI2
aI2
aI7
aI7
aI7
aI7
aI7
aI7
aI7
aI7
aI7
aI6
aI6
aI6
aI6
aI6
aI6
aI6
aI6
aI6
aI6
aI6
aI6
aI12
aI12
aI12
aI6
aI6
aI6
aI6
aI6
aI6
aI6
aI9
aI9
aI9
aI5
aI5
aI5
aI5
aI8
aI8
aI8
aa(lp71
I4
aI4
aI4
aI4
aI4
aI4
aI4
aI2
aI2
aI2
aI2
aI2
aI2
aI6
aI6
aI6
aI6
aI6
aI6
aI6
aI6
aI6
aI6
aI6
aI9
aI9
aI9
aI5
aI5
aI5
aI5
aI5
aI8
aI8
aa(lp72
I4
aI4
aI4
aI4
aI4
aI4
aI4
aI4
aI4
aI2
aI2
aI2
aI2
aI2
aI2
aI2
aI2
aI2
aI2
aI2
aI6
aI6
aI6
aI6
aI6
aI6
aI6
aI8
aI8
aI8
aI9
aI9
aI9
aI9
aa(lp73
I4
aI4
aI4
aI6
aI6
aI6
aI11
aI11
aI8
aI8
aa(lp74
I4
aI4
aI4
aI4
aI4
aI4
aI2
aI2
aI2
aI2
aI2
aI2
aI2
aI2
aI2
aI0
aI0
aI0
aI0
aI0
aI0
aI0
aI0
aI0
aI0
aI0
aI0
aI0
aI0
aI0
aI0
aI0
aI0
aI0
aI3
aI3
aI3
aI3
aI3
aI8
aI8
aI8
aa(lp75
I4
aI4
aI4
aI8
aI8
aI8
aI8
aI2
aI2
aI2
aI11
aI11
aI11
aa(lp76
I4
aI4
aI4
aI4
aI4
aI4
aI4
aI4
aI4
aI4
aI4
aI4
aI4
aI2
aI2
aI2
aI2
aI2
aI11
aI11
aI11
aI5
aI5
aI5
aI5
aI8
aI8
aa(lp77
I4
aI4
aI4
aI4
aI4
aI4
aI4
aI4
aI4
aI4
aI4
aI4
aI4
aI4
aI4
aI8
aI8
aI8
aI8
aI2
aI2
aI2
aI2
aI2
aI2
aI2
aI2
aI2
aI10
aI10
aI10
aI10
aI10
aI10
aI10
aI12
aI12
aI9
aa(lp78
I4
aI4
aI4
aI4
aI4
aI4
aI2
aI2
aI2
aI2
aI2
aI2
aI2
aI2
aI2
aI2
aI2
aI2
aI6
aI6
aI6
aI6
aI6
aI6
aI6
aI6
aI6
aI6
aI6
aI8
aI8
aa(lp79
I4
aI4
aI4
aI4
aI4
aI4
aI4
aI4
aI4
aI4
aI8
aI8
aI8
aI8
aI2
aI2
aI2
aI2
aI2
aI2
aI2
aI2
aI6
aI6
aI6
aI6
aI6
aI6
aI6
aI6
aI6
aI6
aI6
aI6
aI6
aI9
aI9
aI9
aI9
aa(lp80
I4
aI4
aI4
aI4
aI4
aI4
aI4
aI4
aI4
aI4
aI4
aI4
aI4
aI4
aI4
aI4
aI2
aI2
aI2
aI2
aI2
aI2
aI2
aI2
aI2
aI2
aI10
aI10
aI10
aI3
aI3
aI3
aa(lp81
I4
aI4
aI4
aI4
aI4
aI4
aI4
aI4
aI4
aI2
aI2
aI2
aI2
aI2
aI2
aI2
aI10
aI10
aI10
aI10
aI12
aI12
aI12
aI12
aI12
aI12
aI12
aI8
aI8
aI8
aI8
aI8
aI9
aI9
aI9
aI9
aa(lp82
I4
aI4
aI4
aI8
aI8
aI8
aI8
aI2
aI2
aI2
aI2
aI2
aI2
aI2
aI2
aI2
aI1
aI1
aI1
aI0
aI0
aI0
aI5
aI5
aa(lp83
I4
aI4
aI4
aI4
aI4
aI4
aI4
aI4
aI4
aI4
aI4
aI4
aI4
aI4
aI4
aI4
aI4
aI4
aI2
aI2
aI2
aI2
aI2
aI2
aI2
aI2
aI2
aI6
aI6
aI6
aI6
aI6
aI6
aI6
aI6
aI6
aI6
aI6
aI9
aI9
aI9
aI8
aI8
aI8
aa(lp84
I4
aI4
aI4
aI4
aI4
aI4
aI4
aI4
aI2
aI2
aI2
aI2
aI2
aI2
aI2
aI2
aI2
aI6
aI6
aI6
aI6
aI6
aI6
aI11
aI11
aI11
aI11
aI5
aI5
aI5
aI5
aI5
aI5
aI8
aI8
aa(lp85
I4
aI4
aI4
aI4
aI4
aI4
aI4
aI2
aI2
aI2
aI2
aI2
aI2
aI2
aI2
aI10
aI10
aI10
aI10
aI12
aI12
aI9
aI9
aI9
aI9
aI8
aI8
aa(lp86
I4
aI4
aI4
aI2
aI2
aI2
aI2
aI2
aI6
aI6
aI6
aI6
aI6
aI6
aI6
aI6
aI6
aI6
aI6
aI6
aI6
aI5
aI5
aI5
aI5
aI8
aI8
aI3
aI3
aI3
aI3
aI3
aI3
aI7
aI7
aI7
aI7
aI7
aI7
aI7
aI7
aI7
aI7
aI7
aI7
aI7
aI11
aI11
aI8
aI8
aI9
aI9
aa(lp87
I4
aI4
aI4
aI2
aI2
aI2
aI2
aI2
aI2
aI2
aI2
aI2
aI2
aI2
aI2
aI1
aI1
aI1
aI1
aI0
aI0
aI0
aI0
aI0
aI0
aI0
aI0
aI0
aI0
aI5
aI5
aI5
aI5
aI5
aI8
aI8
aI10
aI10
aI10
aI10
aI10
aI10
aI10
aI3
aI3
aI3
aa(lp88
I4
aI4
aI4
aI2
aI2
aI2
aI2
aI2
aI6
aI6
aI6
aI6
aI6
aI6
aI6
aI6
aI6
aI8
aI8
aI9
aI9
aa(lp89
I4
aI4
aI4
aI4
aI4
aI4
aI4
aI4
aI4
aI4
aI2
aI2
aI2
aI2
aI2
aI2
aI2
aI6
aI6
aI6
aI6
aI6
aI6
aI6
aI6
aI6
aI6
aI6
aI5
aI5
aI5
aI5
aI5
aI8
aI8
aI8
aa(lp90
I4
aI4
aI4
aI4
aI4
aI4
aI4
aI4
aI2
aI2
aI2
aI2
aI2
aI2
aI2
aI2
aI2
aI10
aI10
aI10
aI10
aI12
aI12
aI12
aI12
aI12
aI9
aI9
aI9
aI8
aI8
aa(lp91
I4
aI4
aI4
aI4
aI4
aI4
aI4
aI4
aI4
aI4
aI4
aI4
aI4
aI4
aI4
aI4
aI8
aI8
aI8
aI8
aI2
aI2
aI2
aI2
aI2
aI2
aI10
aI10
aI10
aI10
aI10
aI12
aI12
aI12
aI12
aI9
aI9
aa(lp92
I4
aI4
aI4
aI2
aI2
aI2
aI2
aI2
aI2
aI2
aI2
aI7
aI7
aI7
aI7
aI7
aI12
aI12
aI9
aI9
aI9
aa(lp93
I4
aI4
aI4
aI4
aI4
aI2
aI2
aI2
aI2
aI2
aI2
aI2
aI2
aI2
aI2
aI2
aI6
aI6
aI6
aI6
aI6
aI6
aI6
aI6
aI11
aI11
aI5
aI5
aI8
aI8
aa(lp94
I4
aI4
aI4
aI4
aI2
aI2
aI2
aI2
aI2
aI2
aI2
aI10
aI10
aI10
aI10
aI10
aI12
aI12
aI12
aI12
aI12
aI9
aI9
aI8
aI8
aa(lp95
I4
aI4
aI4
aI4
aI4
aI8
aI8
aI8
aI8
aI1
aI1
aI1
aa(lp96
I4
aI4
aI4
aI4
aI4
aI4
aI4
aI2
aI2
aI2
aI2
aI2
aI2
aI2
aI2
aI2
aI2
aI7
aI7
aI7
aI7
aI7
aI7
aI6
aI6
aI6
aI6
aI12
aI12
aI12
aI6
aI6
aI6
aI6
aI6
aI6
aI6
aI9
aI9
aI9
aI11
aI11
aI8
aI8
aa(lp97
I4
aI4
aI4
aI4
aI4
aI4
aI4
aI4
aI4
aI4
aI4
aI4
aI4
aI4
aI4
aI8
aI8
aI8
aI2
aI2
aI2
aI2
aI2
aI2
aI10
aI10
aI10
aI10
aI10
aI10
aI10
aI10
aI10
aI10
aI10
aI10
aI10
aI10
aI10
aI10
aI10
aI12
aI12
aI12
aI12
aI9
aa(lp98
I4
aI4
aI4
aI8
aI8
aI8
aI8
aI2
aI2
aI2
aI2
aI2
aI2
aI2
aI2
aI2
aI2
aI2
aI2
aI2
aI2
aI2
aI2
aI2
aI2
aI10
aI10
aI10
aI10
aI10
aI12
aI12
aI9
aI9
aa(lp99
I4
aI4
aI4
aI4
aI4
aI4
aI4
aI4
aI4
aI4
aI4
aI4
aI2
aI2
aI2
aI2
aI2
aI2
aI6
aI6
aI6
aI6
aI6
aI6
aI6
aI8
aI8
aI8
aI8
aI7
aI7
aI7
aI7
aI7
aI7
aI7
aI7
aI7
aI7
aI7
aI7
aI12
aI12
aI12
aI12
aI6
aI6
aI6
aI6
aI6
aI6
aI6
aI11
aI11
aI9
aI9
aI9
aI9
aI6
aI6
aI6
aI6
aI6
aI6
aI6
aI6
aI6
aI8
aI8
aI8
aa(lp100
I4
aI4
aI4
aI4
aI2
aI2
aI2
aI2
aI2
aI2
aI2
aI2
aI2
aI2
aI1
aI1
aI1
aI0
aI0
aI0
aI0
aI0
aI0
aI8
aI8
aI8
aa(lp101
I4
aI4
aI4
aI4
aI4
aI4
aI4
aI2
aI2
aI2
aI2
aI2
aI2
aI2
aI2
aI2
aI2
aI6
aI6
aI6
aI6
aI6
aI6
aI6
aI6
aI6
aI6
aI6
aI12
aI12
aI6
aI6
aI6
aI6
aI6
aI6
aI6
aI9
aI9
aI9
aI11
aI11
aI8
aI8
aI8
aa(lp102
I4
aI4
aI4
aI4
aI4
aI4
aI4
aI4
aI2
aI2
aI2
aI2
aI2
aI2
aI2
aI2
aI10
aI10
aI10
aI12
aI12
aI12
aI12
aI12
aI12
aI12
aI12
aI9
aI9
aI9
aI9
aI8
aI8
aI8
aI8
aa(lp103
I4
aI4
aI4
aI4
aI8
aI8
aI8
aI8
aI2
aI2
aI2
aI2
aI2
aI2
aI2
aI2
aI2
aI2
aI2
aI10
aI10
aI10
aI12
aI12
aI12
aI12
aI12
aI9
aI9
aa(lp104
I4
aI4
aI4
aI4
aI4
aI4
aI2
aI2
aI2
aI2
aI2
aI2
aI1
aI0
aI0
aI0
aI0
aI0
aI0
aI0
aI0
aI5
aI5
aI8
aI8
aI8
aa(lp105
I4
aI4
aI4
aI2
aI2
aI2
aI2
aI2
aI2
aI2
aI2
aI2
aI6
aI6
aI6
aI8
aI8
aa(lp106
I4
aI4
aI4
aI4
aI4
aI4
aI4
aI2
aI2
aI2
aI2
aI2
aI2
aI2
aI2
aI2
aI2
aI10
aI10
aI12
aI12
aI12
aI8
aI8
aI8
aI8
aI9
aI9
aa(lp107
I4
aI4
aI4
aI4
aI4
aI4
aI2
aI2
aI2
aI2
aI2
aI2
aI2
aI6
aI6
aI6
aI6
aI6
aI6
aI6
aI6
aI6
aI6
aI6
aI6
aI9
aI9
aI9
aI9
aI8
aI8
aa(lp108
I4
aI4
aI4
aI4
aI4
aI4
aI4
aI4
aI8
aI8
aI8
aI8
aI2
aI2
aI2
aI2
aI2
aI2
aI2
aI7
aI7
aI7
aI7
aI7
aI7
aI7
aI7
aI6
aI6
aI6
aI6
aI6
aI6
aI6
aI6
aI6
aI6
aI6
aI6
aI11
aI11
aI11
aI5
aI5
aI5
aa(lp109
I4
aI4
aI4
aI4
aI4
aI4
aI4
aI4
aI4
aI4
aI4
aI4
aI4
aI4
aI4
aI8
aI8
aI8
aI8
aI2
aI2
aI2
aI2
aI2
aI2
aI2
aI2
aI2
aI6
aI6
aI6
aI6
aI6
aI6
aI6
aI6
aI6
aI6
aI6
aI6
aI9
aI9
aI9
aI5
aI5
aI11
aI11
aI11
aI9
aa(lp110
I4
aI4
aI4
aI4
aI4
aI4
aI2
aI2
aI2
aI2
aI2
aI2
aI2
aI2
aI2
aI2
aI2
aI2
aI2
aI2
aI2
aI2
aI2
aI2
aI10
aI10
aI10
aI10
aI10
aI10
aI10
aI12
aI12
aI9
aI9
aI8
aI8
aa(lp111
I4
aI4
aI4
aI4
aI4
aI4
aI4
aI4
aI8
aI8
aI8
aI8
aI2
aI2
aI2
aI2
aI2
aI2
aI2
aI2
aI2
aI2
aI11
aI11
aa(lp112
I4
aI4
aI4
aI4
aI4
aI4
aI4
aI4
aI4
aI4
aI2
aI2
aI2
aI2
aI2
aI2
aI2
aI2
aI2
aI2
aI6
aI6
aI6
aI6
aI6
aI6
aI6
aI6
aI6
aI6
aI6
aI6
aI6
aI9
aI9
aI9
aI5
aI5
aI5
aI5
aI8
aI8
aI8
aa(lp113
I4
aI4
aI4
aI4
aI4
aI4
aI4
aI2
aI2
aI2
aI2
aI2
aI2
aI2
aI2
aI2
aI6
aI6
aI6
aI6
aI6
aI8
aI8
aa(lp114
I4
aI4
aI4
aI4
aI2
aI2
aI2
aI2
aI2
aI2
aI2
aI2
aI1
aI1
aI1
aI0
aI0
aI0
aI0
aI0
aI0
aI0
aI0
aI0
aI0
aI8
aI8
aI3
aI3
aI3
aI3
aI3
aI3
aI3
aI3
aa(lp115
I4
aI4
aI4
aI4
aI4
aI4
aI4
aI4
aI4
aI4
aI4
aI4
aI8
aI8
aI8
aI8
aI2
aI2
aI2
aI2
aI2
aI2
aI2
aI2
aI2
aI2
aI2
aI10
aI10
aI10
aI12
aI12
aI9
aI9
aa(lp116
I4
aI4
aI4
aI4
aI4
aI2
aI2
aI2
aI11
aI11
aI11
aI5
aI5
aI5
aI5
aI8
aI8
aa(lp117
I4
aI4
aI4
aI4
aI4
aI4
aI4
aI4
aI2
aI2
aI2
aI2
aI2
aI2
aI2
aI6
aI6
aI6
aI6
aI6
aI6
aI9
aI9
aI9
aI8
aI8
aI8
aa(lp118
I4
aI4
aI4
aI8
aI8
aI8
aI8
aI2
aI2
aI2
aI2
aI11
aI11
aI11
aI11
aI5
aI5
aI5
aa(lp119
I4
aI4
aI4
aI4
aI4
aI4
aI4
aI4
aI4
aI8
aI8
aI8
aI8
aI2
aI2
aI2
aI2
aI2
aI2
aI2
aI2
aI2
aI10
aI10
aI10
aI12
aI12
aI9
aI9
aI7
aI7
aI7
aI7
aI7
aI7
aI7
aI7
aI7
aI7
aI7
aI7
aI7
aI7
aI8
aI8
aI8
aI8
aa(lp120
I4
aI4
aI4
aI4
aI8
aI8
aI8
aI8
aI2
aI2
aI2
aI2
aI2
aI2
aI1
aI1
aI1
aI0
aI0
aI0
aI0
aI0
aI0
aI0
aI0
aI0
aa(lp121
I4
aI4
aI4
aI2
aI2
aI2
aI2
aI2
aI2
aI2
aI6
aI6
aI6
aI6
aI6
aI6
aI6
aI6
aI6
aI9
aI9
aI9
aI5
aI5
aI5
aI5
aI5
aI8
aI8
aI8
aa(lp122
I4
aI4
aI4
aI4
aI2
aI2
aI2
aI2
aI2
aI2
aI2
aI2
aI2
aI2
aI1
aI1
aI1
aI0
aI0
aI0
aI0
aI8
aI8
aI3
aI3
aI3
aI3
aa(lp123
I4
aI4
aI4
aI4
aI4
aI4
aI4
aI4
aI4
aI4
aI4
aI2
aI2
aI2
aI2
aI2
aI2
aI2
aI2
aI2
aI2
aI2
aI2
aI6
aI6
aI6
aI6
aI6
aI6
aI6
aI6
aI6
aI6
aI6
aI6
aI6
aI6
aI5
aI5
aI5
aI8
aI8
aa(lp124
I4
aI4
aI4
aI4
aI4
aI4
aI4
aI4
aI4
aI4
aI4
aI4
aI4
aI4
aI4
aI8
aI8
aI8
aI8
aI2
aI2
aI2
aI2
aI2
aI2
aI2
aI2
aI2
aI6
aI6
aI6
aI6
aI6
aI6
aI6
aI6
aI6
aI6
aI6
aI9
aI9
aI9
aI9
aa(lp125
I4
aI4
aI4
aI4
aI4
aI4
aI4
aI4
aI4
aI2
aI2
aI2
aI2
aI2
aI2
aI2
aI2
aI2
aI6
aI6
aI6
aI6
aI6
aI6
aI6
aI5
aI5
aI5
aI5
aI8
aI8
aa(lp126
I4
aI4
aI4
aI4
aI4
aI4
aI4
aI4
aI4
aI4
aI4
aI4
aI4
aI4
aI4
aI4
aI4
aI4
aI4
aI4
aI2
aI2
aI2
aI2
aI2
aI2
aI2
aI2
aI2
aI2
aI2
aI2
aI10
aI10
aI12
aI12
aI12
aI12
aI12
aI9
aI9
aI9
aI8
aI8
aI8
aI8
aa(lp127
I4
aI4
aI4
aI4
aI4
aI4
aI4
aI4
aI4
aI4
aI4
aI4
aI4
aI2
aI2
aI2
aI2
aI2
aI2
aI2
aI2
aI2
aI6
aI6
aI6
aI6
aI6
aI6
aI12
aI12
aI12
aI12
aI11
aI11
aI5
aI5
aI5
aI5
aI8
aI8
aI8
aI8
aa(lp128
I4
aI4
aI4
aI4
aI4
aI4
aI4
aI4
aI4
aI4
aI4
aI4
aI2
aI2
aI2
aI2
aI2
aI2
aI2
aI2
aI2
aI2
aI2
aI2
aI2
aI2
aI6
aI6
aI6
aI6
aI6
aI6
aI6
aI6
aI6
aI6
aI6
aI6
aI6
aI9
aI9
aI9
aI8
aI8
aI8
aa(lp129
I7
aI7
aI7
aI7
aI7
aI7
aI2
aI2
aI2
aI2
aI2
aI5
aI5
aI11
aI11
aI9
aI9
aI9
aI9
aa(lp130
I4
aI4
aI4
aI4
aI4
aI4
aI4
aI4
aI4
aI4
aI8
aI8
aI2
aI2
aI2
aI2
aI2
aI2
aI2
aI2
aI2
aI7
aI7
aI7
aI7
aI7
aI7
aI7
aI7
aI7
aI7
aI7
aI7
aI7
aI7
aI7
aI7
aI7
aI6
aI6
aI6
aI6
aI6
aI6
aI6
aI5
aI5
aI5
aI11
aI11
aI11
aI9
aI9
aa(lp131
I4
aI4
aI4
aI8
aI8
aI8
aI8
aI2
aI2
aI2
aI2
aI2
aI2
aI2
aI10
aI10
aI10
aI12
aI12
aI12
aI12
aI12
aI9
aa(lp132
I4
aI4
aI4
aI4
aI4
aI4
aI4
aI4
aI4
aI4
aI4
aI4
aI4
aI4
aI4
aI4
aI4
aI2
aI2
aI2
aI2
aI2
aI2
aI2
aI2
aI2
aI2
aI6
aI6
aI6
aI6
aI6
aI6
aI6
aI6
aI6
aI6
aI6
aI6
aI6
aI6
aI9
aI9
aI9
aI8
aI8
aI8
aa(lp133
I4
aI4
aI4
aI4
aI4
aI4
aI2
aI2
aI2
aI2
aI2
aI2
aI2
aI2
aI10
aI10
aI10
aI10
aI10
aI10
aI10
aI12
aI12
aI9
aI9
aI8
aI8
aa(lp134
I4
aI4
aI4
aI4
aI4
aI4
aI4
aI4
aI4
aI2
aI2
aI2
aI2
aI2
aI2
aI2
aI11
aI11
aI11
aI11
aI8
aI8
aa(lp135
I4
aI4
aI4
aI4
aI4
aI4
aI4
aI4
aI4
aI4
aI2
aI2
aI2
aI2
aI2
aI2
aI6
aI6
aI6
aI6
aI6
aI6
aI6
aI6
aI6
aI6
aI6
aI6
aI6
aI6
aI12
aI12
aI12
aI12
aI8
aI8
aI8
aI8
aI8
aI9
aI9
aa(lp136
I4
aI4
aI4
aI4
aI4
aI4
aI4
aI4
aI4
aI4
aI4
aI2
aI2
aI2
aI2
aI2
aI2
aI2
aI6
aI6
aI6
aI6
aI6
aI6
aI6
aI6
aI6
aI6
aI6
aI6
aI6
aI6
aI6
aI6
aI6
aI6
aI6
aI5
aI5
aI5
aI5
aI5
aI8
aI8
aI8
aa(lp137
I4
aI4
aI4
aI4
aI4
aI4
aI4
aI4
aI4
aI4
aI8
aI8
aI8
aI8
aI2
aI2
aI2
aI2
aI2
aI2
aI2
aI2
aI2
aI2
aI2
aI2
aI2
aI2
aI2
aI10
aI10
aI10
aI12
aI12
aI9
aI9
aI3
aI3
aI4
aI4
aI4
aI4
aI4
aI4
aI8
aI8
aI8
aI2
aI2
aI2
aI2
aI2
aI2
aI2
aa(lp138
I4
aI4
aI4
aI2
aI2
aI2
aI2
aI2
aI2
aI5
aI5
aI5
aI5
aI5
aI5
aa(lp139
I4
aI4
aI4
aI4
aI4
aI4
aI2
aI2
aI2
aI2
aI2
aI2
aI2
aI2
aI2
aI2
aI2
aI10
aI10
aI10
aI10
aI10
aI10
aI10
aI10
aI12
aI12
aI12
aI12
aI12
aI12
aI12
aI8
aI8
aI9
aI9
aI9
aI9
aa(lp140
I4
aI4
aI4
aI4
aI4
aI4
aI4
aI2
aI2
aI2
aI2
aI2
aI2
aI2
aI2
aI2
aI10
aI10
aI10
aI10
aI10
aI10
aI12
aI12
aI12
aI12
aI12
aI9
aI9
aI8
aI8
aI8
aa(lp141
I4
aI4
aI4
aI4
aI4
aI2
aI2
aI2
aI2
aI2
aI2
aI1
aI1
aI1
aI1
aI1
aI8
aI8
aI8
aI8
aI8
aa(lp142
I4
aI4
aI4
aI4
aI4
aI4
aI4
aI2
aI2
aI2
aI2
aI2
aI1
aI1
aI8
aI8
aa(lp143
I4
aI4
aI4
aI4
aI2
aI2
aI2
aI2
aI2
aI2
aI10
aI10
aI10
aI12
aI12
aI12
aI12
aI12
aI9
aI9
aI8
aI8
aI8
aa(lp144
I4
aI4
aI4
aI4
aI4
aI4
aI4
aI4
aI4
aI4
aI8
aI8
aI8
aI8
aI2
aI2
aI2
aI2
aI2
aI10
aI10
aI10
aa(lp145
I4
aI4
aI4
aI4
aI4
aI4
aI4
aI4
aI4
aI4
aI4
aI4
aI4
aI8
aI8
aI2
aI2
aI2
aI2
aI2
aI2
aI2
aI2
aI1
aI1
aI1
aI1
aI0
aI0
aI0
aI0
aI3
aI3
aI3
aI3
aI3
aI3
aa(lp146
I4
aI4
aI4
aI4
aI4
aI4
aI4
aI4
aI4
aI4
aI4
aI4
aI4
aI8
aI8
aI8
aI8
aI2
aI2
aI2
aI2
aI2
aI2
aI10
aI10
aI10
aI10
aI12
aI12
aI9
aI9
aa(lp147
I4
aI4
aI4
aI4
aI4
aI4
aI4
aI4
aI4
aI8
aI8
aI8
aI8
aI2
aI2
aI2
aI2
aI2
aI2
aI2
aI2
aI2
aI2
aI2
aI2
aI6
aI6
aI6
aI12
aI12
aI9
aI9
aa(lp148
I4
aI4
aI4
aI4
aI4
aI4
aI2
aI2
aI2
aI2
aI2
aI2
aI2
aI6
aI6
aI6
aI6
aI6
aI6
aI6
aI6
aI6
aI6
aI6
aI6
aI6
aI6
aI6
aI5
aI5
aI5
aI5
aI5
aI8
aI8
aI8
aI8
aa(lp149
I4
aI4
aI4
aI4
aI4
aI4
aI2
aI2
aI2
aI2
aI2
aI2
aI2
aI2
aI2
aI10
aI10
aI10
aI10
aI10
aI10
aI10
aI10
aI12
aI12
aI12
aI12
aI8
aI8
aI8
aa(lp150
I4
aI4
aI4
aI2
aI2
aI2
aI2
aI2
aI2
aI2
aI2
aI2
aI2
aI2
aI2
aI2
aI2
aI2
aI1
aI1
aI8
aI8
aa(lp151
I4
aI4
aI4
aI4
aI4
aI4
aI2
aI2
aI2
aI2
aI2
aI2
aI2
aI2
aI2
aI2
aI6
aI6
aI6
aI6
aI6
aI6
aI6
aI6
aI6
aI6
aI6
aI6
aI6
aI6
aI5
aI5
aI5
aI5
aI8
aI8
aI8
aa(lp152
I4
aI4
aI4
aI4
aI4
aI4
aI4
aI4
aI4
aI4
aI4
aI4
aI4
aI4
aI4
aI4
aI4
aI4
aI4
aI4
aI4
aI4
aI4
aI4
aI4
aI4
aI2
aI2
aI2
aI2
aI2
aI2
aI2
aI2
aI2
aI2
aI10
aI10
aI10
aI12
aI12
aI12
aI12
aI12
aI9
aI9
aI8
aI8
aI8
aa(lp153
I4
aI4
aI4
aI4
aI4
aI4
aI4
aI4
aI4
aI4
aI4
aI4
aI4
aI4
aI4
aI4
aI4
aI4
aI4
aI4
aI8
aI8
aI8
aI8
aI2
aI2
aI2
aI2
aI2
aI2
aI2
aI2
aI2
aI2
aI2
aI2
aI10
aI10
aI10
aI12
aI12
aI9
aI9
aa(lp154
I4
aI4
aI4
aI4
aI4
aI4
aI2
aI2
aI2
aI2
aI2
aI2
aI2
aI2
aI2
aI2
aI2
aI2
aI10
aI10
aI10
aI10
aI10
aI10
aI10
aI12
aI9
aI9
aI8
aI8
aa(lp155
I4
aI4
aI4
aI4
aI4
aI4
aI4
aI4
aI4
aI4
aI4
aI4
aI4
aI2
aI2
aI2
aI2
aI2
aI2
aI2
aI2
aI6
aI6
aI6
aI6
aI6
aI6
aI6
aI6
aI6
aI6
aI6
aI6
aI9
aI9
aI9
aI8
aI8
aI8
aa(lp156
I4
aI4
aI4
aI8
aI8
aI8
aI8
aI2
aI2
aI2
aI2
aI2
aI2
aI11
aI11
aI11
aI5
aI5
aa(lp157
I7
aI7
aI7
aI7
aI7
aI2
aI2
aI2
aI2
aI2
aI2
aI1
aI1
aI0
aI0
aI0
aI0
aI0
aI0
aI0
aI0
aI8
aI8
aI8
aI8
aI8
aa(lp158
I4
aI4
aI4
aI8
aI8
aI8
aI8
aI2
aI2
aI2
aI2
aI2
aI2
aI2
aI2
aI2
aI1
aI1
aI1
aI0
aI0
aI0
aI0
aI0
aI0
aI0
aI0
aI0
aI0
aa(lp159
I4
aI4
aI4
aI4
aI8
aI8
aI8
aI8
aI2
aI2
aI2
aI2
aI2
aI2
aI6
aI6
aI6
aI12
aI12
aI9
aI9
aa(lp160
I4
aI4
aI4
aI2
aI2
aI2
aI2
aI2
aI2
aI2
aI2
aI6
aI6
aI6
aI6
aI6
aI6
aI6
aI6
aI6
aI6
aI6
aI8
aI8
aI8
aI8
aI9
aI9
aa(lp161
I4
aI4
aI4
aI4
aI4
aI4
aI4
aI4
aI4
aI4
aI2
aI2
aI2
aI2
aI2
aI2
aI2
aI2
aI2
aI2
aI2
aI6
aI6
aI6
aI6
aI6
aI6
aI8
aI8
aI8
aa(lp162
I4
aI4
aI4
aI4
aI4
aI4
aI4
aI4
aI4
aI4
aI4
aI4
aI4
aI4
aI4
aI4
aI8
aI8
aI8
aI8
aI2
aI2
aI2
aI2
aI2
aI2
aI2
aI2
aI2
aI6
aI6
aI6
aI6
aI6
aI6
aI6
aI6
aI6
aI6
aI6
aI12
aI12
aI12
aI12
aI9
aI9
aI9
aI9
aa(lp163
I4
aI4
aI4
aI8
aI8
aI8
aI8
aI2
aI2
aI2
aI2
aI2
aI2
aI1
aI1
aI1
aI1
aI1
aI1
aI1
aI1
aI1
aI1
aI5
aI5
aI5
aI5
aI8
aI8
aI8
aI8
aI8
aa(lp164
I4
aI4
aI4
aI4
aI4
aI4
aI4
aI4
aI8
aI8
aI8
aI8
aI2
aI2
aI2
aI2
aI2
aI2
aI2
aI2
aI2
aI6
aI6
aI6
aI6
aI6
aI6
aI5
aI5
aI5
aI11
aI11
aI11
aI11
aI11
aa(lp165
I4
aI4
aI4
aI4
aI8
aI8
aI8
aI8
aI2
aI2
aI2
aI2
aI2
aI2
aI2
aI1
aI1
aI1
aI0
aI0
aI0
aI0
aI0
aI0
aI0
aI0
aI0
aI5
aI5
aI5
aI5
aI3
aI3
aI3
aI3
aI3
aI3
aI3
aI3
aI3
aa(lp166
I4
aI4
aI4
aI4
aI4
aI4
aI4
aI4
aI4
aI4
aI4
aI4
aI4
aI4
aI4
aI4
aI2
aI2
aI2
aI2
aI2
aI2
aI2
aI2
aI2
aI2
aI2
aI2
aI6
aI6
aI6
aI6
aI6
aI6
aI6
aI6
aI6
aI6
aI6
aI6
aI8
aI8
aI8
aI8
aI8
aI9
aI9
aI9
aI9
aa(lp167
I4
aI4
aI4
aI4
aI8
aI8
aI8
aI8
aI2
aI2
aI2
aI2
aI2
aI2
aI2
aI2
aI10
aI10
aI12
aI12
aI12
aI12
aI12
aI9
aI9
aa(lp168
I4
aI4
aI4
aI4
aI4
aI4
aI2
aI2
aI2
aI2
aI2
aI2
aI2
aI2
aI1
aI1
aI1
aI1
aI0
aI0
aI0
aI0
aI0
aI0
aI0
aI8
aI8
aa(lp169
I4
aI4
aI4
aI4
aI4
aI4
aI2
aI2
aI2
aI2
aI2
aI2
aI2
aI10
aI10
aI10
aI10
aI10
aI8
aI8
aI8
aI9
aI9
aa(lp170
I4
aI4
aI4
aI4
aI4
aI4
aI4
aI4
aI8
aI8
aI8
aI8
aI2
aI2
aI2
aI2
aI2
aI2
aI2
aI2
aI10
aI10
aI10
aI10
aI12
aI12
aI12
aI12
aI9
aI9
aa(lp171
I4
aI4
aI4
aI4
aI4
aI2
aI2
aI2
aI2
aI2
aI2
aI2
aI2
aI2
aI2
aI2
aI1
aI1
aa(lp172
I4
aI4
aI4
aI4
aI4
aI4
aI4
aI4
aI4
aI4
aI2
aI2
aI2
aI2
aI1
aI1
aI1
aI0
aI0
aI0
aI0
aI0
aI0
aI0
aI0
aI8
aI8
aI8
aa(lp173
I4
aI4
aI4
aI4
aI4
aI4
aI4
aI4
aI4
aI4
aI4
aI4
aI4
aI4
aI4
aI8
aI8
aI8
aI8
aI2
aI2
aI2
aI2
aI2
aI2
aI2
aI2
aI2
aI6
aI6
aI6
aI6
aI6
aI6
aI6
aI6
aI6
aI6
aI6
aI6
aI6
aI6
aI5
aI5
aI5
aI5
aI0
aI0
aI0
aI0
aI0
aI0
aI0
aI0
aI0
aI0
aI0
aa(lp174
I4
aI4
aI4
aI4
aI4
aI4
aI4
aI4
aI4
aI4
aI8
aI8
aI8
aI8
aI2
aI2
aI2
aI2
aI2
aI2
aI6
aI6
aI6
aI6
aI6
aI6
aI6
aI6
aI6
aI6
aI6
aI6
aI6
aI6
aI6
aI6
aI6
aI6
aI9
aI9
aI9
aI5
aI5
aI5
aI5
aI11
aI11
aI11
aa(lp175
I4
aI4
aI4
aI4
aI4
aI4
aI4
aI4
aI4
aI4
aI2
aI2
aI2
aI2
aI2
aI2
aI2
aI2
aI2
aI2
aI10
aI10
aI12
aI9
aI9
aI8
aI8
aI3
aI3
aI3
aI3
aI3
aI3
aI3
aI3
aI3
aa(lp176
I4
aI4
aI4
aI4
aI2
aI2
aI2
aI2
aI2
aI2
aI2
aI2
aI2
aI2
aI2
aI2
aI2
aI2
aI1
aI1
aI1
aI1
aI1
aI1
aI3
aI3
aI3
aI3
aI3
aI3
aI0
aI0
aI0
aI0
aI0
aI0
aI0
aI0
aI0
aI0
aI8
aI8
aI8
aa(lp177
I4
aI4
aI4
aI4
aI4
aI4
aI4
aI4
aI2
aI2
aI2
aI2
aI2
aI2
aI2
aI2
aI2
aI2
aI10
aI10
aI10
aI10
aI12
aI8
aI8
aI8
aI8
aI9
aI9
aa(lp178
I7
aI7
aI7
aI7
aI7
aI7
aI7
aI7
aI7
aI7
aI7
aI2
aI2
aI2
aI2
aI2
aI2
aI2
aI2
aI2
aI2
aI10
aI10
aI12
aI12
aI12
aI12
aI12
aI8
aI8
aI9
aI9
aa(lp179
I4
aI4
aI4
aI4
aI4
aI4
aI4
aI4
aI4
aI8
aI8
aI8
aI8
aI2
aI2
aI2
aI2
aI2
aI2
aI2
aI2
aI2
aI10
aI10
aI10
aI12
aI12
aI12
aI12
aI12
aI12
aI12
aI9
aI9
aI9
aI9
aa(lp180
I4
aI4
aI4
aI4
aI4
aI2
aI2
aI2
aI2
aI2
aI2
aI2
aI2
aI2
aI2
aI2
aI1
aI1
aI1
aI0
aI0
aI0
aI0
aI0
aI0
aI0
aI0
aI0
aI0
aI8
aI8
aa(lp181
I4
aI4
aI4
aI4
aI4
aI4
aI4
aI4
aI8
aI8
aI8
aI8
aI2
aI2
aI2
aI2
aI2
aI2
aI2
aI2
aI2
aI2
aI2
aI2
aI2
aI2
aI6
aI6
aI6
aI6
aa(lp182
I4
aI4
aI4
aI2
aI2
aI2
aI2
aI2
aI2
aI2
aI11
aI11
aI11
aI11
aI5
aI5
aI5
aI5
aI8
aI8
aa(lp183
I4
aI4
aI4
aI4
aI8
aI8
aI8
aI8
aI2
aI2
aI2
aI2
aI2
aI2
aI1
aI1
aI1
aI0
aI0
aI0
aa(lp184
I4
aI4
aI4
aI4
aI4
aI4
aI4
aI4
aI4
aI4
aI4
aI4
aI4
aI4
aI2
aI2
aI2
aI2
aI2
aI2
aI2
aI2
aI10
aI10
aI10
aI10
aI10
aI10
aI10
aI12
aI12
aI12
aI12
aI9
aI9
aI8
aI8
aa(lp185
I4
aI4
aI4
aI4
aI4
aI4
aI4
aI4
aI4
aI4
aI2
aI2
aI2
aI2
aI2
aI2
aI2
aI2
aI2
aI2
aI2
aI2
aI2
aI2
aI2
aI2
aI2
aI2
aI6
aI6
aI6
aI6
aI6
aI6
aI6
aI6
aI6
aI6
aI6
aI6
aI6
aI6
aI6
aI9
aI9
aI9
aI8
aI8
aI8
aa(lp186
I4
aI4
aI4
aI4
aI4
aI4
aI4
aI4
aI4
aI2
aI2
aI2
aI2
aI2
aI1
aI1
aI1
aI0
aI0
aI0
aI0
aI0
aI0
aI0
aI0
aI8
aI8
aa(lp187
I4
aI4
aI4
aI4
aI4
aI4
aI4
aI4
aI4
aI4
aI4
aI4
aI4
aI4
aI4
aI2
aI2
aI2
aI2
aI2
aI2
aI2
aI2
aI6
aI6
aI6
aI6
aI6
aI6
aI6
aI6
aI6
aI6
aI6
aI6
aI6
aI6
aI6
aI5
aI5
aI5
aI8
aI8
aa(lp188
I4
aI4
aI4
aI2
aI2
aI2
aI2
aI2
aI2
aI2
aI11
aI11
aI11
aI11
aI5
aI5
aI11
aI11
aI11
aI5
aI5
aI5
aI5
aI8
aI8
aa(lp189
I4
aI4
aI4
aI4
aI4
aI4
aI4
aI4
aI8
aI8
aI8
aI8
aI2
aI2
aI2
aI2
aI2
aI2
aI2
aI2
aI2
aI2
aI2
aI2
aI2
aI2
aI2
aI2
aI10
aI10
aI12
aI12
aI9
aI9
aI9
aI9
aa(lp190
I4
aI4
aI4
aI4
aI2
aI2
aI2
aI11
aI11
aI11
aI11
aI11
aI11
aI11
aI5
aI5
aI5
aI5
aI5
aI5
aI5
aI5
aI5
aI8
aI8
aa(lp191
I4
aI4
aI4
aI4
aI4
aI4
aI4
aI4
aI8
aI8
aI8
aI8
aI2
aI2
aI2
aI2
aI2
aI2
aI2
aI2
aI6
aI6
aI6
aI6
aI6
aI6
aI6
aI6
aI6
aI6
aI6
aI6
aI6
aI6
aI6
aI12
aI12
aI12
aI12
aI9
aI9
aI9
aI9
aa(lp192
I4
aI4
aI4
aI4
aI4
aI4
aI4
aI4
aI4
aI4
aI4
aI4
aI8
aI8
aI8
aI8
aI2
aI2
aI2
aI2
aI2
aI2
aI2
aI2
aI2
aI6
aI6
aI6
aI6
aI6
aI9
aI9
aI9
aI9
aI11
aI11
aI11
aa(lp193
I4
aI4
aI4
aI4
aI8
aI8
aI8
aI8
aI2
aI2
aI2
aI2
aI6
aI6
aI6
aI12
aI12
aI12
aI12
aI12
aI9
aI9
aa(lp194
I4
aI4
aI4
aI4
aI4
aI8
aI8
aI8
aI8
aI2
aI2
aI2
aI2
aI2
aI2
aI2
aI2
aI2
aI2
aI2
aI10
aI10
aI10
aI10
aI10
aI12
aI12
aI12
aI12
aI12
aI9
aI9
aa(lp195
I4
aI4
aI4
aI8
aI8
aI8
aI8
aI2
aI2
aI2
aI2
aI2
aI2
aI2
aI2
aI2
aI2
aI2
aI2
aI2
aI6
aI6
aI6
aI6
aI6
aI6
aI6
aI6
aI6
aI6
aI6
aI6
aI9
aI9
aI9
aI5
aI5
aI5
aI5
aI11
aI11
aI11
aa(lp196
I4
aI4
aI4
aI4
aI4
aI4
aI4
aI4
aI4
aI4
aI2
aI2
aI2
aI2
aI2
aI2
aI2
aI2
aI1
aI1
aI1
aI1
aI0
aI0
aI0
aI0
aI0
aI0
aI0
aI0
aI0
aI0
aI0
aI8
aI8
aI8
aa(lp197
I4
aI4
aI4
aI4
aI4
aI4
aI4
aI4
aI8
aI8
aI8
aI8
aI2
aI2
aI2
aI2
aI2
aI2
aI2
aI2
aI2
aI2
aI6
aI6
aI6
aI9
aI9
aI9
aI9
aa(lp198
I4
aI4
aI4
aI4
aI4
aI4
aI4
aI4
aI4
aI4
aI4
aI4
aI4
aI2
aI2
aI2
aI2
aI2
aI2
aI2
aI2
aI2
aI2
aI2
aI2
aI2
aI2
aI2
aI2
aI2
aI6
aI6
aI6
aI6
aI6
aI6
aI6
aI6
aI6
aI6
aI6
aI6
aI6
aI6
aI9
aI9
aI9
aI8
aI8
aa(lp199
I4
aI4
aI4
aI4
aI4
aI4
aI4
aI4
aI4
aI2
aI2
aI2
aI2
aI2
aI2
aI2
aI2
aI10
aI10
aI10
aI10
aI10
aI12
aI12
aI12
aI12
aI9
aI9
aI8
aI8
aI8
aa(lp200
I4
aI4
aI4
aI4
aI4
aI4
aI4
aI4
aI4
aI2
aI2
aI2
aI2
aI2
aI2
aI2
aI2
aI6
aI6
aI6
aI6
aI6
aI6
aI6
aI9
aI9
aI9
aI9
aI8
aI8
aa(lp201
I4
aI4
aI4
aI4
aI4
aI4
aI4
aI8
aI8
aI2
aI2
aI2
aI2
aI2
aI2
aI2
aI2
aI2
aI6
aI6
aI6
aI6
aI6
aI6
aI6
aI6
aI6
aI6
aI7
aI7
aI7
aI7
aI7
aI11
aI11
aI11
aI11
aI11
aI9
aI9
aa(lp202
I4
aI4
aI4
aI2
aI2
aI2
aI2
aI2
aI2
aI2
aI2
aI6
aI6
aI6
aI6
aI6
aI6
aI6
aI6
aI6
aI6
aI6
aI6
aI6
aI6
aI6
aI9
aI9
aI9
aI5
aI5
aI5
aI5
aI5
aI8
aI8
aI8
aa(lp203
I4
aI4
aI4
aI4
aI4
aI4
aI4
aI4
aI4
aI4
aI4
aI4
aI8
aI8
aI8
aI8
aI2
aI2
aI2
aI2
aI2
aI2
aI10
aI10
aI10
aI10
aI10
aI10
aI10
aI10
aI9
aI9
aI3
aI3
aI3
aI3
aI3
aI3
aI3
aI3
aI3
aI3
aa(lp204
I4
aI4
aI4
aI4
aI8
aI8
aI8
aI8
aI2
aI2
aI2
aI2
aI2
aI2
aI2
aI2
aI2
aI2
aI6
aI6
aI6
aI6
aI6
aI6
aI6
aI12
aI12
aI9
aI9
aa(lp205
I4
aI4
aI4
aI4
aI4
aI4
aI4
aI4
aI8
aI8
aI8
aI8
aI2
aI2
aI2
aI2
aI2
aI2
aI2
aI2
aI6
aI6
aI6
aI6
aI6
aI6
aI6
aI6
aI6
aI6
aI6
aI6
aI9
aI9
aI9
aI9
aI5
aI5
aI5
aI5
aI11
aI11
aI11
aa(lp206
I4
aI4
aI4
aI4
aI4
aI4
aI4
aI4
aI4
aI4
aI2
aI2
aI2
aI2
aI2
aI2
aI2
aI2
aI2
aI2
aI2
aI2
aI2
aI10
aI10
aI10
aI10
aI10
aI10
aI10
aI9
aI9
aI9
aI9
aI8
aI8
aI8
aI8
aa(lp207
I4
aI4
aI4
aI8
aI8
aI8
aI8
aI2
aI2
aI2
aI2
aI2
aI6
aI6
aI6
aI6
aI6
aI6
aI6
aI6
aI6
aI6
aI6
aI6
aI12
aI12
aI12
aI12
aI9
aI9
aI9
aI9
aI0
aI0
aI0
aI0
aI3
aI3
aI7
aI7
aI7
aI7
aI7
aI7
aI6
aI6
aI6
aI6
aI11
aI11
aI8
aI8
aI8
aI8
aI9
aI9
aI3
aI3
aI4
aI4
aI4
aI4
aI4
aI4
aI6
aI6
aI6
aI6
aI6
aI8
aI8
aa(lp208
I4
aI4
aI4
aI4
aI2
aI2
aI2
aI2
aI2
aI2
aI2
aI2
aI2
aI6
aI6
aI6
aI8
aI8
aI8
aI8
aa(lp209
I4
aI4
aI4
aI8
aI8
aI2
aI2
aI2
aI2
aI2
aI2
aI2
aI2
aI10
aI10
aI10
aI10
aI12
aI9
aa(lp210
I4
aI4
aI4
aI4
aI4
aI4
aI2
aI2
aI2
aI2
aI2
aI2
aI2
aI2
aI2
aI2
aI2
aI2
aI2
aI2
aI2
aI6
aI6
aI6
aI6
aI6
aI6
aI6
aI6
aI6
aI6
aI6
aI9
aI9
aI9
aI8
aI8
aI8
aa(lp211
I4
aI4
aI4
aI1
aI1
aI1
aI8
aI8
aI8
aa(lp212
I4
aI4
aI4
aI4
aI8
aI8
aI8
aI2
aI2
aI2
aI2
aI2
aI2
aI2
aI2
aI2
aI7
aI7
aI7
aI7
aI7
aI7
aI7
aI7
aI7
aI7
aI7
aI6
aI6
aI6
aI6
aI6
aI6
aI6
aI6
aI6
aI6
aI5
aI5
aI5
aI11
aI11
aI11
aa(lp213
I4
aI4
aI4
aI4
aI4
aI4
aI2
aI2
aI2
aI2
aI2
aI2
aI2
aI2
aI2
aI2
aI2
aI2
aI2
aI6
aI6
aI6
aI6
aI6
aI6
aI6
aI6
aI6
aI6
aI6
aI5
aI5
aI5
aI5
aI8
aI8
aI8
aa(lp214
I4
aI4
aI4
aI4
aI2
aI2
aI2
aI2
aI2
aI2
aI10
aI10
aI10
aI10
aI10
aI10
aI10
aI10
aI10
aI12
aI12
aI12
aI12
aI9
aI9
aI8
aI8
aa(lp215
I4
aI4
aI4
aI4
aI4
aI4
aI4
aI4
aI4
aI8
aI8
aI8
aI8
aI2
aI2
aI2
aI2
aI2
aI2
aI2
aI2
aI10
aI10
aI12
aI12
aI9
aI9
aa(lp216
I4
aI4
aI4
aI4
aI4
aI4
aI4
aI2
aI2
aI2
aI2
aI2
aI2
aI6
aI6
aI6
aI6
aI6
aI6
aI6
aI6
aI6
aI6
aI6
aI6
aI6
aI5
aI5
aI8
aI8
aI8
aa(lp217
I4
aI4
aI4
aI4
aI4
aI4
aI4
aI4
aI4
aI4
aI4
aI6
aI6
aI6
aI6
aI6
aI6
aI6
aI6
aI6
aI11
aI11
aI5
aI5
aI5
aI5
aI3
aI3
aI3
aI8
aI8
aa(lp218
I4
aI4
aI4
aI2
aI2
aI2
aI2
aI2
aI2
aI2
aI2
aI2
aI2
aI2
aI10
aI10
aI10
aI10
aI10
aI12
aI12
aI12
aI12
aI9
aI9
aI8
aI8
aI8
aI8
aa(lp219
I4
aI4
aI4
aI4
aI4
aI4
aI4
aI4
aI4
aI4
aI4
aI4
aI4
aI4
aI4
aI4
aI4
aI8
aI8
aI8
aI8
aI2
aI2
aI2
aI2
aI2
aI2
aI2
aI2
aI2
aI6
aI6
aI6
aI6
aI6
aI6
aI6
aI6
aI6
aI6
aI6
aI9
aI9
aI9
aI9
aI5
aI5
aI5
aI5
aI11
aI11
aI11
aa(lp220
I4
aI4
aI4
aI4
aI2
aI2
aI2
aI2
aI2
aI2
aI2
aI1
aI1
aI1
aI0
aI0
aI8
aI8
aI8
aI8
aa(lp221
I4
aI4
aI4
aI4
aI2
aI2
aI2
aI2
aI2
aI2
aI1
aI1
aI1
aI0
aI0
aI0
aI0
aI0
aI0
aI0
aI8
aI8
aa(lp222
I4
aI4
aI4
aI4
aI4
aI4
aI4
aI4
aI4
aI4
aI4
aI4
aI8
aI8
aI8
aI8
aI2
aI2
aI2
aI2
aI2
aI2
aI2
aI2
aI10
aI10
aI10
aI10
aI10
aI10
aI10
aI3
aI3
aI3
aa(lp223
I4
aI4
aI4
aI4
aI4
aI4
aI4
aI2
aI2
aI2
aI2
aI2
aI2
aI10
aI10
aI10
aI10
aI10
aI12
aI12
aI12
aI12
aI9
aI9
aI8
aI8
aI8
aa(lp224
I4
aI4
aI4
aI4
aI4
aI4
aI4
aI4
aI4
aI4
aI4
aI4
aI4
aI4
aI4
aI8
aI8
aI8
aI8
aI2
aI2
aI2
aI2
aI2
aI10
aI10
aI10
aI10
aI12
aI12
aI9
aI9
aa(lp225
I4
aI4
aI4
aI4
aI4
aI4
aI4
aI4
aI4
aI4
aI4
aI4
aI4
aI4
aI4
aI4
aI4
aI4
aI4
aI4
aI4
aI4
aI4
aI4
aI4
aI4
aI4
aI4
aI4
aI4
aI4
aI4
aI4
aI4
aI4
aI4
aI4
aI4
aI4
aI4
aI2
aI2
aI2
aI2
aI2
aI6
aI6
aI6
aI6
aI6
aI6
aI6
aI6
aI6
aI6
aI6
aI6
aI9
aI9
aI9
aI8
aI8
aI8
aa(lp226
I4
aI4
aI4
aI4
aI4
aI4
aI4
aI4
aI2
aI2
aI2
aI2
aI2
aI2
aI2
aI2
aI2
aI6
aI6
aI6
aI6
aI6
aI6
aI6
aI6
aI6
aI9
aI9
aI9
aI8
aI8
aa(lp227
I4
aI4
aI4
aI4
aI2
aI2
aI2
aI2
aI2
aI2
aI10
aI10
aI10
aI10
aI10
aI12
aI12
aI12
aI12
aI9
aI9
aI8
aI8
aa(lp228
I4
aI4
aI4
aI4
aI4
aI4
aI2
aI2
aI2
aI2
aI2
aI2
aI2
aI2
aI2
aI2
aI2
aI10
aI10
aI10
aI10
aI10
aI10
aI10
aI12
aI9
aI9
aI8
aI8
aa(lp229
I4
aI4
aI4
aI4
aI4
aI4
aI4
aI4
aI4
aI2
aI2
aI2
aI2
aI2
aI2
aI10
aI10
aI10
aI12
aI12
aI12
aI12
aI9
aI9
aI8
aI8
aI8
aa(lp230
I4
aI4
aI4
aI4
aI4
aI4
aI4
aI4
aI2
aI2
aI2
aI2
aI2
aI2
aI2
aI2
aI2
aI2
aI2
aI6
aI6
aI6
aI6
aI6
aI6
aI6
aI6
aI9
aI9
aI9
aI8
aI8
aa(lp231
I4
aI4
aI4
aI4
aI4
aI4
aI4
aI4
aI4
aI8
aI8
aI8
aI8
aI2
aI2
aI2
aI2
aI10
aI10
aI10
aI10
aI10
aI10
aI10
aI12
aI12
aI9
aI9
aa(lp232
I4
aI4
aI4
aI4
aI4
aI4
aI4
aI4
aI4
aI4
aI4
aI4
aI4
aI4
aI2
aI2
aI2
aI2
aI2
aI2
aI1
aI1
aI1
aI1
aI0
aI0
aI0
aI0
aI0
aI0
aI0
aI8
aI8
aa(lp233
I4
aI4
aI4
aI4
aI4
aI4
aI4
aI4
aI4
aI4
aI4
aI4
aI4
aI4
aI4
aI4
aI2
aI2
aI2
aI2
aI11
aI11
aI5
aI5
aI5
aI5
aI5
aI8
aI8
aa(lp234
I4
aI4
aI4
aI2
aI2
aI2
aI2
aI2
aI2
aI2
aI10
aI10
aI10
aI10
aI10
aI10
aI10
aI10
aI10
aI12
aI12
aI12
aI12
aI9
aI9
aI8
aI8
aa(lp235
I4
aI4
aI4
aI4
aI4
aI4
aI4
aI2
aI2
aI2
aI2
aI2
aI2
aI7
aI7
aI7
aI7
aI7
aI7
aI6
aI6
aI6
aI6
aI6
aI6
aI6
aI6
aI6
aI6
aI6
aI6
aI6
aI6
aI6
aI6
aI9
aI9
aI9
aI5
aI5
aI5
aI5
aI8
aI8
aI8
aa(lp236
I4
aI4
aI4
aI4
aI4
aI4
aI4
aI4
aI4
aI4
aI4
aI4
aI4
aI4
aI4
aI2
aI2
aI2
aI2
aI2
aI2
aI2
aI10
aI10
aI10
aI10
aI12
aI9
aI9
aI9
aI8
aI8
aI8
aI8
aa(lp237
I4
aI4
aI8
aI8
aI8
aI8
aI2
aI2
aI2
aI2
aI2
aI2
aI2
aI2
aI2
aI10
aI10
aI10
aI10
aI12
aI12
aI12
aI12
aI12
aI9
aI9
aa(lp238
I4
aI4
aI4
aI4
aI4
aI4
aI4
aI4
aI4
aI4
aI4
aI4
aI4
aI4
aI8
aI8
aI8
aI8
aI2
aI2
aI2
aI2
aI2
aI2
aI2
aI6
aI6
aI6
aI6
aI6
aI6
aI6
aI6
aI6
aI6
aI6
aI6
aI6
aI6
aI5
aI5
aa(lp239
I4
aI4
aI4
aI4
aI4
aI4
aI4
aI4
aI8
aI8
aI8
aI8
aI2
aI2
aI2
aI2
aI2
aI2
aI2
aI2
aI2
aI2
aI2
aI2
aI2
aI2
aI2
aI2
aI7
aI7
aI7
aI7
aI7
aI7
aI7
aI7
aI7
aI7
aI7
aI7
aI7
aI7
aI7
aI7
aI7
aI7
aI7
aI6
aI6
aI6
aI6
aI6
aI6
aI6
aI6
aI6
aI6
aI6
aI9
aI9
aI9
aI5
aI5
aI5
aI5
aI11
aI11
aI11
aa(lp240
I7
aI7
aI7
aI7
aI7
aI7
aI7
aI7
aI7
aI7
aI7
aI7
aI7
aI7
aI2
aI2
aI2
aI2
aI2
aI2
aI2
aI2
aI2
aI10
aI10
aI10
aI10
aI12
aI12
aI12
aI12
aI12
aI8
aI8
aa(lp241
I4
aI4
aI4
aI4
aI4
aI4
aI4
aI4
aI4
aI4
aI2
aI2
aI2
aI2
aI2
aI11
aI11
aI11
aI5
aI5
aI5
aI5
aI8
aI8
aa(lp242
I4
aI4
aI4
aI4
aI8
aI8
aI8
aI8
aI2
aI2
aI2
aI2
aI2
aI2
aI5
aI5
aI11
aI11
aI11
aI7
aI7
aI7
aI7
aI7
aI7
aI7
aI8
aI8
aI8
aI8
aI6
aI6
aI6
aI6
aI6
aI6
aI6
aI6
aa(lp243
I4
aI4
aI4
aI4
aI4
aI4
aI4
aI4
aI4
aI4
aI4
aI4
aI4
aI4
aI4
aI4
aI4
aI4
aI4
aI4
aI4
aI4
aI3
aI3
aI3
aI3
aI3
aI3
aI3
aI3
aI3
aI3
aI3
aI3
aI3
aI3
aI8
aI8
aI8
aa(lp244
I4
aI4
aI4
aI2
aI2
aI2
aI2
aI2
aI2
aI2
aI2
aI2
aI2
aI6
aI6
aI6
aI6
aI6
aI6
aI6
aI6
aI6
aI6
aI6
aI6
aI6
aI9
aI9
aI9
aI11
aI11
aI8
aI8
aI8
aI3
aI3
aI3
aI3
aI3
aI3
aI3
aI3
aI3
aa(lp245
I4
aI4
aI4
aI4
aI4
aI4
aI2
aI2
aI2
aI2
aI2
aI2
aI2
aI2
aI2
aI2
aI7
aI7
aI7
aI7
aI7
aI7
aI7
aI7
aI7
aI6
aI6
aI6
aI6
aI6
aI6
aI9
aI9
aI9
aI5
aI5
aI5
aI11
aI11
aI11
aI8
aI8
aa(lp246
I4
aI4
aI4
aI4
aI4
aI4
aI4
aI2
aI2
aI2
aI2
aI2
aI2
aI2
aI6
aI6
aI6
aI6
aI6
aI8
aI8
aI8
aa(lp247
I4
aI4
aI4
aI4
aI4
aI4
aI4
aI4
aI4
aI4
aI4
aI4
aI8
aI8
aI8
aI8
aI2
aI2
aI2
aI2
aI2
aI2
aI2
aI2
aI10
aI10
aI10
aI10
aI12
aI12
aI12
aI12
aI12
aI9
aI9
aa(lp248
I4
aI4
aI4
aI4
aI4
aI4
aI4
aI4
aI4
aI4
aI4
aI4
aI4
aI2
aI2
aI2
aI2
aI2
aI2
aI2
aI2
aI2
aI2
aI2
aI6
aI6
aI6
aI6
aI6
aI8
aI8
aI8
aa(lp249
I4
aI4
aI4
aI4
aI4
aI4
aI4
aI2
aI2
aI2
aI2
aI2
aI10
aI10
aI10
aI10
aI10
aI10
aI10
aI10
aI10
aI10
aI10
aI10
aI10
aI10
aI10
aI10
aI10
aI10
aI10
aI10
aI12
aI12
aI12
aI12
aI8
aI8
aa(lp250
I4
aI4
aI4
aI4
aI4
aI4
aI2
aI2
aI2
aI2
aI2
aI2
aI2
aI2
aI6
aI6
aI6
aI6
aI6
aI6
aI6
aI8
aI8
aa(lp251
I4
aI4
aI4
aI4
aI4
aI4
aI4
aI4
aI4
aI4
aI4
aI4
aI2
aI2
aI2
aI2
aI2
aI2
aI2
aI2
aI2
aI6
aI6
aI6
aI6
aI6
aI6
aI6
aI6
aI5
aI5
aI5
aI5
aI5
aI8
aI8
aI8
aI8
aI8
aI9
aI9
aI9
aI9
aa(lp252
I4
aI4
aI4
aI4
aI4
aI4
aI2
aI2
aI2
aI2
aI2
aI2
aI10
aI10
aI10
aI10
aI10
aI10
aI10
aI10
aI12
aI12
aI12
aI12
aI9
aI9
aI8
aI8
aI8
aa(lp253
I4
aI4
aI4
aI4
aI4
aI4
aI4
aI4
aI8
aI8
aI8
aI8
aI2
aI2
aI2
aI2
aI10
aI10
aI10
aI12
aI12
aI12
aI12
aI9
aI9
aa(lp254
I4
aI4
aI4
aI2
aI2
aI2
aI2
aI2
aI2
aI2
aI2
aI1
aI1
aI1
aI1
aI1
aI0
aI0
aI0
aI0
aI5
aI5
aI5
aI5
aI8
aI8
aa(lp255
I4
aI4
aI4
aI4
aI4
aI4
aI4
aI8
aI8
aI8
aI8
aI2
aI2
aI2
aI2
aI2
aI2
aI6
aI6
aI6
aI6
aI6
aI6
aI6
aI6
aI6
aI6
aI6
aI6
aI9
aI9
aI9
aI9
aI9
aI9
aI5
aI5
aI5
aa(lp256
I4
aI4
aI4
aI2
aI2
aI2
aI2
aI2
aI10
aI10
aI10
aI12
aI12
aI12
aI12
aI12
aI8
aI8
aI9
aI9
aI9
aI9
aa(lp257
I4
aI4
aI4
aI4
aI8
aI8
aI8
aI8
aI2
aI2
aI2
aI2
aI2
aI2
aI2
aI2
aI2
aI2
aI2
aI1
aI1
aI1
aI0
aI0
aI0
aI0
aI0
aI0
aI0
aI0
aI0
aa(lp258
I4
aI4
aI4
aI4
aI2
aI2
aI2
aI2
aI2
aI2
aI2
aI2
aI1
aI1
aI1
aI1
aI0
aI0
aI0
aI0
aI0
aI0
aI0
aI0
aI0
aI8
aI8
aI8
aa(lp259
I4
aI4
aI4
aI4
aI4
aI4
aI4
aI4
aI8
aI8
aI8
aI8
aI2
aI2
aI2
aI2
aI2
aI2
aI2
aI2
aI2
aI2
aI2
aI2
aI2
aI2
aI2
aI2
aI10
aI10
aI12
aI12
aI9
aI9
aI9
aI9
aa(lp260
I7
aI7
aI7
aI7
aI7
aI7
aI7
aI7
aI6
aI6
aI6
aI6
aI6
aI6
aI6
aI6
aI6
aI6
aI5
aI5
aI5
aI5
aI5
aa(lp261
I4
aI4
aI4
aI4
aI4
aI4
aI4
aI4
aI4
aI4
aI4
aI4
aI4
aI4
aI4
aI4
aI4
aI4
aI2
aI2
aI2
aI2
aI2
aI2
aI2
aI6
aI6
aI6
aI6
aI6
aI6
aI6
aI6
aI6
aI6
aI6
aI6
aI6
aI8
aI8
aI8
aa(lp262
I4
aI4
aI4
aI4
aI4
aI4
aI4
aI4
aI8
aI8
aI8
aI8
aI2
aI2
aI2
aI2
aI2
aI2
aI2
aI2
aI2
aI6
aI6
aI6
aI6
aI6
aI9
aI9
aa(lp263
I4
aI4
aI4
aI4
aI4
aI4
aI4
aI4
aI4
aI4
aI4
aI4
aI4
aI2
aI2
aI2
aI2
aI2
aI2
aI2
aI2
aI2
aI2
aI2
aI2
aI6
aI6
aI6
aI6
aI6
aI6
aI5
aI5
aI5
aI5
aI8
aI8
aI8
aI8
aa(lp264
I4
aI4
aI4
aI4
aI2
aI2
aI2
aI2
aI2
aI2
aI2
aI2
aI2
aI2
aI2
aI1
aI1
aI1
aI1
aI0
aI0
aI0
aI0
aI0
aI0
aI0
aI0
aI0
aI0
aI0
aI5
aI5
aI5
aI5
aI5
aI5
aI8
aI8
aa(lp265
I4
aI4
aI4
aI4
aI4
aI4
aI4
aI4
aI2
aI2
aI2
aI2
aI2
aI2
aI2
aI2
aI1
aI1
aI1
aI8
aI8
aI8
aa(lp266
I4
aI4
aI4
aI4
aI4
aI4
aI4
aI4
aI4
aI4
aI4
aI4
aI8
aI8
aI8
aI2
aI2
aI2
aI2
aI2
aI2
aI2
aI2
aI2
aI2
aI10
aI10
aI10
aI10
aI10
aI10
aI10
aI10
aI9
aa(lp267
I4
aI4
aI4
aI4
aI4
aI4
aI4
aI4
aI4
aI4
aI4
aI4
aI4
aI8
aI8
aI8
aI8
aI2
aI2
aI2
aI2
aI2
aI2
aI2
aI2
aI2
aI2
aI2
aI2
aI2
aI2
aI2
aI2
aI6
aI6
aI6
aI6
aI6
aI12
aI12
aI12
aI12
aI7
aI7
aI7
aI7
aI7
aI7
aI7
aI7
aI7
aI7
aI7
aI5
aI5
aI5
aI11
aI11
aI9
aI9
aI9
aI9
aa(lp268
I4
aI4
aI4
aI8
aI8
aI8
aI8
aI2
aI2
aI2
aI2
aI2
aI6
aI6
aI6
aI6
aI6
aI6
aI6
aI6
aI6
aI6
aI6
aI6
aI6
aa(lp269
I4
aI4
aI4
aI4
aI8
aI8
aI8
aI8
aI2
aI2
aI2
aI2
aI2
aI2
aI10
aI10
aI10
aI10
aI10
aI12
aI12
aI12
aI12
aI12
aa(lp270
I4
aI4
aI4
aI4
aI4
aI4
aI4
aI4
aI4
aI4
aI2
aI2
aI2
aI2
aI2
aI2
aI2
aI2
aI2
aI2
aI10
aI10
aI10
aI10
aI10
aI10
aI10
aI10
aI10
aI12
aI12
aI12
aI12
aI9
aI9
aI8
aI8
aI8
aa(lp271
I4
aI4
aI4
aI4
aI4
aI4
aI2
aI2
aI2
aI2
aI2
aI2
aI2
aI2
aI2
aI2
aI1
aI1
aI1
aI1
aI1
aI1
aI1
aI9
aI9
aI9
aI9
aI8
aI8
aa(lp272
I4
aI4
aI4
aI4
aI4
aI4
aI2
aI2
aI2
aI2
aI2
aI2
aI2
aI2
aI2
aI2
aI6
aI6
aI6
aI6
aI6
aI6
aI6
aI9
aI9
aI9
aI8
aI8
aa(lp273
I4
aI4
aI4
aI4
aI4
aI4
aI4
aI4
aI4
aI4
aI4
aI4
aI4
aI4
aI4
aI2
aI2
aI2
aI2
aI2
aI2
aI3
aI3
aI3
aI3
aI3
aI3
aa(lp274
I4
aI4
aI4
aI4
aI2
aI2
aI2
aI2
aI2
aI2
aI6
aI6
aI6
aI6
aI6
aI6
aI6
aI6
aI6
aI6
aI6
aI6
aI8
aI8
aa(lp275
I4
aI4
aI4
aI4
aI4
aI4
aI2
aI2
aI2
aI2
aI2
aI2
aI2
aI2
aI6
aI6
aI6
aI6
aI6
aI9
aI9
aI9
aI8
aI8
aa(lp276
I4
aI4
aI4
aI4
aI4
aI4
aI4
aI4
aI4
aI4
aI4
aI4
aI4
aI4
aI2
aI2
aI2
aI2
aI2
aI2
aI2
aI2
aI2
aI10
aI10
aI10
aI12
aI12
aI12
aI12
aI12
aI12
aI8
aI8
aI8
aI8
aI8
aI8
aI8
aI9
aI9
aI9
aI9
aa(lp277
I4
aI4
aI4
aI4
aI4
aI4
aI4
aI4
aI4
aI4
aI2
aI2
aI2
aI2
aI2
aI2
aI2
aI2
aI2
aI10
aI10
aI10
aI10
aI10
aI12
aI9
aa(lp278
I4
aI4
aI4
aI4
aI4
aI4
aI4
aI4
aI4
aI4
aI4
aI4
aI4
aI4
aI4
aI8
aI8
aI8
aI8
aI2
aI2
aI2
aI2
aI2
aI2
aI2
aI10
aI10
aI10
aI12
aI12
aI9
aI9
aa(lp279
I4
aI4
aI4
aI4
aI4
aI4
aI4
aI4
aI8
aI8
aI8
aI8
aI2
aI2
aI2
aI2
aI2
aI11
aI11
aa(lp280
I4
aI4
aI4
aI4
aI4
aI4
aI4
aI4
aI4
aI4
aI8
aI8
aI8
aI8
aI2
aI2
aI2
aI2
aI2
aI2
aI2
aI2
aI2
aI2
aI10
aI10
aI10
aI10
aI12
aI12
aI12
aI12
aI12
aI9
aI9
aa(lp281
I4
aI4
aI4
aI4
aI4
aI4
aI2
aI2
aI2
aI2
aI2
aI2
aI2
aI2
aI2
aI2
aI2
aI2
aI2
aI2
aI2
aI2
aI1
aI1
aI1
aI1
aI1
aI0
aI0
aI0
aI0
aI0
aI0
aI0
aI0
aI8
aI8
aa(lp282
I4
aI4
aI4
aI4
aI4
aI4
aI4
aI4
aI2
aI2
aI2
aI2
aI2
aI2
aI2
aI2
aI2
aI2
aI2
aI6
aI6
aI6
aI6
aI6
aI6
aI6
aI6
aI6
aI9
aI9
aI9
aI9
aI8
aI8
aI8
aa(lp283
I4
aI4
aI4
aI4
aI4
aI4
aI4
aI4
aI4
aI4
aI4
aI4
aI4
aI4
aI4
aI8
aI8
aI8
aI8
aI2
aI2
aI2
aI2
aI2
aI2
aI2
aI10
aI10
aI10
aI10
aI10
aI10
aI12
aI12
aI12
aI12
aI12
aI9
aI9
aa(lp284
I4
aI4
aI4
aI4
aI8
aI8
aI2
aI2
aI2
aI2
aI2
aI2
aI2
aI2
aI6
aI6
aI6
aI6
aI11
aa(lp285
I4
aI4
aI4
aI4
aI4
aI4
aI4
aI4
aI4
aI4
aI4
aI4
aI4
aI4
aI4
aI4
aI4
aI4
aI4
aI4
aI4
aI4
aI4
aI4
aI4
aI4
aI4
aI4
aI8
aI8
aI8
aI8
aI2
aI2
aI2
aI2
aI2
aI6
aI6
aI6
aI6
aI6
aI6
aI6
aI6
aI6
aI6
aI6
aI6
aI9
aI9
aI9
aI9
aI5
aI5
aI5
aI5
aa(lp286
I4
aI4
aI4
aI4
aI4
aI4
aI4
aI4
aI4
aI4
aI4
aI4
aI2
aI2
aI2
aI2
aI2
aI2
aI2
aI2
aI2
aI2
aI10
aI10
aI10
aI10
aI10
aI10
aI8
aI8
aI3
aI3
aI3
aI3
aI3
aI3
aI3
aI3
aI3
aI3
aI3
aI3
aI3
aa(lp287
I4
aI4
aI4
aI4
aI8
aI8
aI8
aI8
aI2
aI2
aI2
aI2
aI2
aI2
aI2
aI5
aI5
aI5
aI11
aI11
aI11
aa(lp288
I4
aI4
aI4
aI4
aI4
aI4
aI4
aI4
aI8
aI8
aI8
aI8
aI2
aI2
aI2
aI2
aI2
aI2
aI2
aI2
aI2
aI2
aI6
aI6
aI6
aI6
aI6
aI6
aI6
aI6
aI6
aI6
aI9
aI9
aa(lp289
I4
aI4
aI4
aI4
aI4
aI4
aI4
aI4
aI4
aI4
aI4
aI4
aI4
aI4
aI4
aI4
aI4
aI8
aI8
aI8
aI8
aI2
aI2
aI2
aI2
aI2
aI2
aI2
aI2
aI2
aI2
aI10
aI10
aI10
aI10
aI10
aI10
aI10
aI12
aI12
aI9
aI9
aa(lp290
I4
aI4
aI4
aI8
aI8
aI8
aI8
aI2
aI2
aI2
aI2
aI2
aI2
aI2
aI2
aI2
aI2
aI2
aI2
aI2
aI2
aI2
aI2
aI2
aI5
aI5
aI5
aI5
aI11
aI11
aI11
aa(lp291
I4
aI4
aI4
aI4
aI4
aI4
aI2
aI2
aI2
aI2
aI2
aI2
aI2
aI11
aI11
aI8
aI8
aa(lp292
I4
aI4
aI4
aI4
aI4
aI4
aI4
aI4
aI8
aI8
aI8
aI8
aI2
aI2
aI2
aI2
aI2
aI2
aI6
aI6
aI6
aI6
aI6
aI6
aI6
aI6
aI6
aI6
aI5
aI5
aI11
aI11
aI9
aI9
aa(lp293
I4
aI4
aI4
aI4
aI4
aI4
aI4
aI4
aI8
aI8
aI8
aI8
aI2
aI2
aI2
aI2
aI2
aI2
aI2
aI2
aI2
aI2
aI2
aI6
aI6
aI6
aI6
aa(lp294
I4
aI4
aI4
aI4
aI8
aI8
aI8
aI8
aI2
aI2
aI2
aI2
aI2
aI2
aI2
aI2
aI2
aI2
aI2
aI11
aI11
aI11
aa(lp295
I4
aI4
aI4
aI4
aI4
aI4
aI4
aI4
aI8
aI8
aI8
aI8
aI2
aI2
aI2
aI2
aI2
aI2
aI2
aI2
aI1
aI1
aI1
aI1
aI1
aI0
aI0
aI0
aI0
aI0
aI0
aI0
aI0
aI0
aa(lp296
I4
aI4
aI4
aI8
aI8
aI8
aI8
aI2
aI2
aI2
aI2
aI2
aI2
aI10
aI10
aI10
aI12
aI12
aI9
aI9
aa(lp297
I4
aI4
aI4
aI2
aI2
aI2
aI2
aI2
aI2
aI2
aI10
aI10
aI10
aI10
aI10
aI12
aI12
aI12
aI12
aI8
aI8
aa(lp298
I4
aI4
aI4
aI4
aI4
aI4
aI4
aI4
aI4
aI8
aI8
aI8
aI8
aI2
aI2
aI2
aI2
aI2
aI2
aI2
aI2
aI2
aI2
aI2
aI6
aI6
aI6
aI6
aI6
aI6
aI6
aI6
aI6
aI6
aI5
aI5
aI5
aI5
aI11
aI11
aI11
aI9
aI9
aI9
aI9
aa(lp299
I4
aI4
aI4
aI4
aI8
aI8
aI8
aI8
aI2
aI2
aI2
aI2
aI6
aI6
aI6
aI6
aI6
aI6
aI12
aI12
aI12
aI12
aI12
aI12
aI12
aI9
aI9
aI9
aI9
aa(lp300
I4
aI4
aI4
aI4
aI4
aI4
aI4
aI4
aI4
aI4
aI4
aI4
aI4
aI4
aI4
aI4
aI2
aI2
aI2
aI2
aI2
aI2
aI2
aI2
aI2
aI2
aI6
aI6
aI6
aI6
aI6
aI6
aI6
aI6
aI6
aI6
aI11
aI11
aI5
aI5
aI5
aI5
aI8
aI8
aI8
aa(lp301
I4
aI4
aI4
aI4
aI4
aI4
aI2
aI2
aI2
aI2
aI2
aI2
aI2
aI2
aI6
aI6
aI6
aI6
aI6
aI6
aI6
aI6
aI6
aI6
aI12
aI12
aI12
aI12
aI12
aI8
aI8
aI8
aa(lp302
I4
aI4
aI4
aI2
aI2
aI2
aI2
aI2
aI2
aI2
aI2
aI2
aI2
aI2
aI2
aI2
aI10
aI10
aI10
aI8
aI8
aa(lp303
I4
aI4
aI4
aI4
aI4
aI4
aI4
aI4
aI8
aI8
aI8
aI8
aI2
aI2
aI2
aI2
aI2
aI2
aI2
aI2
aI6
aI6
aI6
aI6
aI6
aI6
aI6
aI6
aI6
aI6
aI6
aI6
aI6
aI6
aa(lp304
I4
aI4
aI4
aI4
aI4
aI4
aI4
aI4
aI4
aI4
aI4
aI2
aI2
aI2
aI2
aI2
aI2
aI2
aI2
aI2
aI10
aI10
aI10
aI10
aI12
aI12
aI12
aI12
aI12
aI9
aI9
aI8
aI8
aI8
aa(lp305
I4
aI4
aI4
aI4
aI8
aI8
aI8
aI8
aI2
aI2
aI2
aI2
aI2
aI2
aI6
aI6
aI6
aI6
aI9
aI9
aa(lp306
I4
aI4
aI4
aI4
aI4
aI4
aI4
aI4
aI2
aI2
aI2
aI2
aI2
aI6
aI6
aI6
aI6
aI6
aI6
aI6
aI6
aI6
aI6
aI6
aI6
aI6
aI6
aI9
aI9
aI9
aI8
aI8
aI8
aa(lp307
I4
aI4
aI4
aI4
aI4
aI4
aI4
aI2
aI8
aI8
aI8
aI8
aI2
aI2
aI2
aI2
aI2
aI2
aI2
aI2
aI2
aI6
aI6
aI6
aI6
aI6
aI6
aI6
aI6
aI6
aI6
aI6
aI6
aI5
aI5
aI9
aI9
aI9
aa(lp308
I4
aI4
aI4
aI4
aI4
aI4
aI4
aI4
aI4
aI4
aI4
aI4
aI4
aI2
aI2
aI2
aI2
aI2
aI2
aI2
aI2
aI2
aI2
aI2
aI2
aI7
aI7
aI7
aI7
aI7
aI7
aI7
aI7
aI7
aI6
aI6
aI6
aI6
aI6
aI6
aI6
aI11
aI11
aI11
aI11
aI8
aI8
aa(lp309
I4
aI4
aI4
aI4
aI4
aI4
aI4
aI4
aI8
aI8
aI8
aI8
aI2
aI2
aI2
aI2
aI2
aI2
aI1
aI1
aI1
aI1
aI0
aI0
aI0
aI0
aI0
aI0
aI0
aI0
aI0
aa(lp310
I4
aI4
aI4
aI4
aI4
aI4
aI4
aI4
aI4
aI4
aI8
aI8
aI8
aI8
aI2
aI2
aI2
aI2
aI2
aI2
aI2
aI2
aI2
aI2
aI2
aI10
aI10
aI10
aI12
aI12
aI12
aI12
aI12
aI12
aI12
aI12
aI9
aI9
aa(lp311
I4
aI4
aI4
aI4
aI4
aI4
aI4
aI4
aI4
aI4
aI4
aI4
aI4
aI4
aI4
aI4
aI2
aI2
aI2
aI2
aI2
aI2
aI2
aI2
aI6
aI6
aI6
aI6
aI6
aI8
aI8
aI8
aa(lp312
I4
aI4
aI4
aI4
aI4
aI4
aI4
aI4
aI4
aI4
aI4
aI4
aI4
aI2
aI2
aI2
aI2
aI2
aI2
aI2
aI2
aI2
aI2
aI2
aI1
aI1
aI1
aI1
aI1
aI0
aI0
aI0
aI0
aI0
aI0
aI8
aI8
aI8
aa(lp313
I4
aI4
aI4
aI4
aI4
aI4
aI2
aI2
aI2
aI2
aI2
aI2
aI2
aI6
aI6
aI6
aI6
aI6
aI6
aI6
aI6
aI6
aI6
aI6
aI6
aI6
aI6
aI6
aI8
aI8
aI8
aa(lp314
I4
aI4
aI4
aI4
aI4
aI4
aI4
aI2
aI2
aI2
aI2
aI2
aI2
aI2
aI2
aI10
aI10
aI10
aI10
aI10
aI10
aI10
aI10
aI12
aI12
aI12
aI12
aI12
aI12
aI12
aI9
aI9
aI9
aI9
aI8
aI8
aI8
aa(lp315
I4
aI4
aI4
aI4
aI4
aI4
aI4
aI4
aI8
aI8
aI8
aI8
aI2
aI2
aI2
aI2
aI2
aI2
aI2
aI2
aI2
aI2
aI2
aI7
aI7
aI7
aI7
aI7
aI7
aI7
aI7
aI7
aI7
aI7
aI7
aI7
aI7
aI7
aI7
aI7
aI7
aI6
aI6
aI6
aI6
aI6
aI6
aI6
aI12
aI12
aI12
aI12
aI9
aI9
aI9
aI9
aI5
aI5
aI5
aI11
aI11
aI11
aa(lp316
I4
aI4
aI8
aI8
aI8
aI8
aI2
aI2
aI2
aI2
aI2
aI2
aI2
aI2
aI6
aI6
aI6
aI6
aI6
aI6
aI6
aI9
aI9
aa(lp317
I4
aI4
aI4
aI4
aI4
aI4
aI4
aI4
aI4
aI4
aI4
aI4
aI4
aI4
aI4
aI4
aI8
aI8
aI8
aI8
aI2
aI2
aI2
aI2
aI2
aI5
aI5
aI5
aI5
aI11
aI11
aI11
aI11
aa(lp318
I4
aI4
aI4
aI4
aI4
aI4
aI4
aI4
aI4
aI4
aI4
aI4
aI4
aI4
aI4
aI4
aI4
aI4
aI4
aI4
aI4
aI4
aI4
aI4
aI4
aI4
aI4
aI4
aI4
aI4
aI4
aI4
aI2
aI2
aI2
aI2
aI2
aI2
aI10
aI10
aI10
aI9
aI9
aI9
aI8
aI8
aI8
aa(lp319
I4
aI4
aI4
aI4
aI4
aI4
aI4
aI4
aI4
aI4
aI4
aI4
aI2
aI2
aI2
aI2
aI2
aI2
aI2
aI2
aI2
aI2
aI10
aI10
aI10
aI10
aI12
aI12
aI12
aI12
aI12
aI8
aI8
aI8
aa(lp320
I4
aI4
aI4
aI4
aI4
aI4
aI4
aI4
aI4
aI4
aI4
aI4
aI2
aI2
aI2
aI2
aI2
aI2
aI2
aI2
aI2
aI2
aI2
aI2
aI6
aI6
aI6
aI6
aI6
aI6
aI6
aI6
aI6
aI6
aI6
aI6
aI6
aI6
aI9
aI9
aI9
aI5
aI5
aI5
aI5
aI8
aI8
aI8
aa(lp321
I4
aI4
aI4
aI4
aI4
aI4
aI4
aI4
aI4
aI2
aI2
aI2
aI2
aI2
aI2
aI6
aI6
aI6
aI6
aI6
aI6
aI6
aI12
aI12
aI12
aI12
aI9
aI9
aI8
aI8
aa(lp322
I4
aI4
aI4
aI4
aI4
aI4
aI8
aI8
aI8
aI2
aI2
aI2
aI2
aI2
aI2
aI2
aI2
aI2
aI2
aI2
aI2
aI2
aI2
aI1
aI1
aI1
aI1
aI1
aI1
aI0
aI0
aI0
aI0
aa(lp323
I4
aI4
aI4
aI4
aI4
aI4
aI4
aI4
aI4
aI4
aI4
aI4
aI4
aI4
aI4
aI4
aI4
aI4
aI4
aI4
aI2
aI2
aI2
aI2
aI2
aI2
aI2
aI2
aI6
aI6
aI6
aI6
aI6
aI6
aI6
aI9
aI9
aI9
aI8
aI8
aI8
aa(lp324
I4
aI4
aI4
aI4
aI4
aI4
aI2
aI2
aI2
aI2
aI2
aI6
aI6
aI6
aI6
aI6
aI6
aI6
aI6
aI6
aI6
aI9
aI9
aI9
aI5
aI5
aI5
aI5
aI5
aI8
aI8
aa(lp325
I4
aI4
aI4
aI2
aI2
aI2
aI2
aI2
aI2
aI10
aI10
aI10
aI10
aI10
aI12
aI9
aI9
aI9
aI9
aI8
aI8
aa(lp326
I4
aI4
aI4
aI4
aI4
aI4
aI2
aI2
aI2
aI2
aI2
aI2
aI2
aI2
aI2
aI1
aI1
aI1
aI1
aI0
aI0
aI0
aI0
aI0
aI0
aI0
aI8
aI8
aa(lp327
I4
aI4
aI4
aI2
aI2
aI2
aI2
aI2
aI2
aI2
aI1
aI1
aI1
aI1
aI1
aI1
aI1
aI1
aI1
aI1
aI1
aI12
aI12
aI12
aI0
aI0
aI0
aI0
aI0
aI8
aI8
aI8
aa(lp328
I4
aI4
aI4
aI4
aI2
aI2
aI2
aI2
aI2
aI2
aI2
aI2
aI6
aI6
aI6
aI6
aI9
aI9
aI8
aI8
aa(lp329
I4
aI4
aI4
aI2
aI2
aI2
aI2
aI2
aI2
aI2
aI2
aI2
aI2
aI2
aI2
aI2
aI2
aI2
aI2
aI2
aI2
aI2
aI2
aI2
aI2
aI2
aI2
aI2
aI2
aI2
aI2
aI1
aI1
aI1
aI0
aI0
aI0
aI0
aI8
aI8
aa(lp330
I4
aI4
aI4
aI4
aI4
aI4
aI4
aI2
aI2
aI2
aI2
aI2
aI2
aI2
aI2
aI2
aI2
aI2
aI10
aI10
aI10
aI10
aI12
aI8
aI8
aI8
aI8
aI9
aI9
aI9
aI9
aa(lp331
I4
aI4
aI4
aI4
aI8
aI8
aI8
aI8
aI2
aI2
aI2
aI2
aI2
aI2
aI2
aI2
aI1
aI1
aI1
aI0
aI0
aI0
aI0
aI0
aI0
aI0
aI0
aI0
aI5
aI5
aI5
aI5
aI3
aI3
aI0
aI0
aI0
aI0
aI0
aI0
aI0
aI0
aI1
aI1
aI1
aI1
aI1
aa(lp332
I4
aI4
aI4
aI4
aI4
aI4
aI4
aI2
aI2
aI2
aI2
aI2
aI2
aI2
aI2
aI2
aI2
aI1
aI1
aI1
aI1
aI1
aI1
aI0
aI0
aI0
aI0
aI8
aI8
aa(lp333
I4
aI4
aI4
aI4
aI4
aI4
aI4
aI4
aI8
aI8
aI8
aI8
aI2
aI2
aI2
aI2
aI2
aI6
aI6
aI9
aI9
aa(lp334
I4
aI4
aI4
aI4
aI4
aI4
aI4
aI4
aI8
aI8
aI8
aI8
aI2
aI2
aI2
aI2
aI2
aI2
aI2
aI2
aI2
aI10
aI10
aI10
aI10
aI10
aI12
aI12
aI9
aI9
aa(lp335
I4
aI4
aI4
aI4
aI8
aI8
aI8
aI8
aI2
aI2
aI2
aI2
aI2
aI2
aI2
aI2
aI2
aI2
aI10
aI10
aI10
aI12
aI12
aI12
aI12
aI12
aI9
aI9
aa(lp336
I4
aI4
aI4
aI4
aI4
aI4
aI4
aI4
aI4
aI4
aI4
aI4
aI8
aI8
aI8
aI8
aI2
aI2
aI2
aI2
aI2
aI2
aI2
aI11
aI11
aI5
aI5
aI5
aa(lp337
I4
aI4
aI4
aI2
aI2
aI2
aI2
aI2
aI2
aI2
aI2
aI1
aI1
aI1
aI0
aI0
aI0
aI8
aI8
aI8
aa(lp338
I4
aI4
aI4
aI4
aI4
aI4
aI4
aI4
aI4
aI4
aI2
aI2
aI2
aI2
aI2
aI6
aI6
aI6
aI6
aI6
aI6
aI6
aI6
aI6
aI6
aI0
aI0
aI0
aI0
aI0
aI0
aI0
aI0
aI1
aI1
aI1
aI1
aI8
aI8
aI8
aa(lp339
I4
aI4
aI4
aI4
aI2
aI2
aI2
aI2
aI2
aI2
aI2
aI2
aI2
aI2
aI2
aI2
aI2
aI11
aI11
aI11
aI5
aI5
aI5
aI8
aI8
aa(lp340
I4
aI4
aI4
aI4
aI4
aI4
aI4
aI4
aI4
aI4
aI8
aI8
aI8
aI8
aI2
aI2
aI2
aI2
aI2
aI2
aI2
aI2
aI2
aI10
aI10
aI10
aI10
aI10
aI12
aI12
aI12
aI12
aI12
aI9
aI9
aa(lp341
I4
aI4
aI4
aI8
aI8
aI8
aI8
aI2
aI2
aI2
aI2
aI2
aI2
aI2
aI10
aI10
aI10
aI10
aI10
aI10
aI12
aI12
aI9
aI9
aa(lp342
I4
aI4
aI4
aI4
aI2
aI2
aI2
aI2
aI2
aI2
aI2
aI10
aI10
aI10
aI10
aI10
aI10
aI9
aI9
aI9
aI8
aI8
aI8
aa(lp343
I4
aI4
aI4
aI4
aI4
aI4
aI4
aI4
aI4
aI4
aI2
aI2
aI2
aI2
aI2
aI2
aI2
aI10
aI10
aI10
aI10
aI12
aI9
aI8
aI8
aI8
aI8
aa(lp344
I4
aI4
aI4
aI8
aI8
aI8
aI8
aI2
aI2
aI2
aI2
aI2
aI2
aI2
aI11
aI11
aI11
aI11
aa(lp345
I4
aI4
aI4
aI4
aI4
aI4
aI4
aI4
aI4
aI4
aI2
aI2
aI2
aI2
aI2
aI2
aI2
aI2
aI2
aI2
aI2
aI2
aI2
aI2
aI2
aI2
aI2
aI2
aI2
aI10
aI10
aI10
aI10
aI10
aI12
aI12
aI12
aI12
aI12
aI9
aI9
aI8
aI8
aa(lp346
I4
aI4
aI4
aI4
aI4
aI4
aI4
aI4
aI4
aI4
aI8
aI8
aI8
aI8
aI2
aI2
aI2
aI2
aI2
aI2
aI2
aI2
aI2
aI2
aI2
aI2
aI2
aI2
aI2
aI2
aI10
aI10
aI10
aI10
aI10
aI10
aI12
aI12
aI9
aI9
aa(lp347
I4
aI4
aI4
aI4
aI2
aI2
aI2
aI2
aI2
aI2
aI2
aI2
aI2
aI2
aI1
aI1
aI1
aI5
aI5
aI5
aI5
aI5
aI8
aI8
aa(lp348
I4
aI4
aI4
aI4
aI4
aI4
aI4
aI4
aI8
aI8
aI8
aI8
aI2
aI2
aI2
aI2
aI2
aI2
aI2
aI2
aI2
aI2
aI2
aI2
aI10
aI10
aI12
aI12
aI5
aI5
aI11
aI11
aI11
aI11
aa(lp349
I4
aI4
aI4
aI4
aI4
aI4
aI4
aI4
aI2
aI2
aI2
aI2
aI2
aI2
aI9
aI9
aI9
aI11
aI11
aI11
aI11
aI11
aI5
aI5
aI5
aI5
aI5
aI3
aI3
aI3
aI8
aI8
aI3
aI3
aI3
aI3
aa(lp350
I4
aI4
aI4
aI4
aI8
aI8
aI8
aI8
aI2
aI2
aI2
aI2
aI2
aI2
aI2
aI2
aI2
aI2
aI2
aI2
aI10
aI10
aI10
aI12
aI12
aI9
aI9
aa(lp351
I4
aI4
aI4
aI4
aI4
aI4
aI4
aI4
aI4
aI4
aI2
aI2
aI2
aI2
aI2
aI2
aI2
aI2
aI10
aI10
aI10
aI10
aI10
aI12
aI12
aI12
aI12
aI9
aI9
aI8
aI8
aI8
aa(lp352
I4
aI4
aI4
aI4
aI4
aI4
aI4
aI4
aI4
aI4
aI4
aI4
aI2
aI2
aI2
aI2
aI2
aI2
aI2
aI2
aI2
aI3
aI3
aI3
aI3
aI3
aI3
aI3
aI3
aI3
aa(lp353
I4
aI4
aI4
aI4
aI2
aI2
aI2
aI2
aI2
aI2
aI2
aI2
aI2
aI2
aI6
aI6
aI6
aI6
aI6
aI6
aI6
aI6
aI6
aI6
aI6
aI5
aI5
aI11
aI11
aI11
aI5
aI5
aI5
aI5
aI8
aI8
aa(lp354
I4
aI4
aI4
aI4
aI4
aI4
aI4
aI4
aI8
aI8
aI8
aI8
aI2
aI2
aI2
aI2
aI2
aI2
aI11
aI11
aI11
aI11
aa(lp355
I4
aI4
aI4
aI4
aI2
aI2
aI2
aI10
aI10
aI10
aI12
aI12
aI12
aI12
aI9
aI9
aI8
aI8
aa(lp356
I4
aI4
aI8
aI8
aI8
aI8
aI2
aI2
aI2
aI2
aI2
aI10
aI10
aI10
aI10
aI12
aI12
aI9
aa(lp357
I4
aI4
aI4
aI4
aI4
aI4
aI2
aI2
aI2
aI2
aI2
aI2
aI10
aI10
aI10
aI10
aI10
aI10
aI12
aI12
aI12
aI12
aI9
aI9
aI8
aI8
aa(lp358
I4
aI4
aI4
aI4
aI4
aI4
aI2
aI2
aI2
aI2
aI2
aI2
aI2
aI6
aI6
aI6
aI6
aI6
aI6
aI5
aI5
aI5
aI5
aI8
aI8
aI8
aa(lp359
I4
aI4
aI4
aI4
aI4
aI4
aI4
aI4
aI8
aI8
aI8
aI8
aI2
aI2
aI2
aI2
aI2
aI2
aI2
aI2
aI6
aI6
aI6
aI6
aI6
aI6
aI6
aI6
aI12
aI12
aI9
aI9
aa(lp360
I4
aI4
aI4
aI4
aI4
aI4
aI2
aI2
aI2
aI2
aI2
aI2
aI2
aI2
aI2
aI2
aI10
aI10
aI10
aI10
aI10
aI10
aI10
aI10
aI12
aI12
aI12
aI12
aI9
aI9
aI8
aI8
aI8
aa(lp361
I4
aI4
aI4
aI2
aI2
aI2
aI2
aI11
aI11
aI11
aI5
aI5
aI5
aI5
aI8
aI8
aa(lp362
I4
aI4
aI4
aI4
aI4
aI4
aI4
aI4
aI4
aI4
aI4
aI2
aI2
aI2
aI2
aI2
aI11
aI11
aI11
aI11
aI5
aI5
aI5
aI5
aI5
aI5
aI5
aI5
aI8
aI8
aa(lp363
I7
aI7
aI7
aI7
aI7
aI7
aI7
aI7
aI7
aI7
aI7
aI7
aI7
aI7
aI7
aI6
aI6
aI6
aI6
aI6
aI6
aI6
aI6
aI6
aI6
aI6
aI11
aI11
aI11
aI11
aI8
aI8
aa(lp364
I4
aI4
aI4
aI2
aI2
aI2
aI2
aI6
aI6
aI6
aI6
aI6
aI7
aI7
aI7
aI7
aI7
aI7
aI7
aI7
aI7
aI7
aI7
aI7
aI7
aI12
aI12
aI12
aI11
aI11
aI8
aI8
aI9
aI9
aI9
aI9
aa(lp365
I4
aI4
aI4
aI4
aI4
aI4
aI2
aI2
aI2
aI2
aI2
aI2
aI2
aI2
aI2
aI6
aI6
aI6
aI6
aI6
aI6
aI6
aI6
aI6
aI6
aI6
aI5
aI5
aI5
aI5
aI8
aI8
aI8
aa(lp366
I4
aI4
aI4
aI4
aI4
aI4
aI4
aI4
aI4
aI4
aI2
aI2
aI2
aI2
aI2
aI2
aI2
aI2
aI2
aI6
aI6
aI6
aI6
aI6
aI6
aI6
aI6
aI6
aI6
aI6
aI6
aI6
aI6
aI6
aI9
aI9
aI9
aI5
aI5
aI5
aI5
aI8
aI8
aI8
aa(lp367
I7
aI7
aI7
aI7
aI7
aI7
aI7
aI7
aI7
aI7
aI2
aI2
aI2
aI2
aI2
aI2
aI2
aI2
aI2
aI2
aI11
aI11
aI11
aI8
aI8
aa(lp368
I4
aI4
aI4
aI2
aI2
aI2
aI2
aI2
aI2
aI2
aI6
aI6
aI6
aI6
aI6
aI6
aI6
aI6
aI6
aI6
aI6
aI9
aI9
aI9
aI8
aI8
aa(lp369
I4
aI4
aI4
aI4
aI4
aI4
aI4
aI4
aI4
aI4
aI4
aI4
aI4
aI4
aI2
aI2
aI2
aI2
aI2
aI2
aI6
aI6
aI6
aI6
aI6
aI6
aI6
aI6
aI6
aI6
aI6
aI12
aI12
aI12
aI12
aI12
aI8
aI8
aI8
aa(lp370
I4
aI4
aI4
aI4
aI4
aI4
aI4
aI4
aI8
aI8
aI8
aI8
aI2
aI2
aI2
aI2
aI2
aI2
aI2
aI2
aI2
aI7
aI7
aI7
aI7
aI7
aI7
aI7
aI7
aI7
aI7
aI7
aI7
aI7
aI7
aI7
aI7
aI7
aI7
aI7
aI6
aI6
aI6
aI6
aI6
aI6
aI6
aI6
aI11
aI11
aI11
aa(lp371
I4
aI4
aI4
aI4
aI4
aI4
aI4
aI4
aI8
aI8
aI8
aI8
aI2
aI2
aI2
aI2
aI2
aI2
aI2
aI7
aI7
aI7
aI7
aI7
aI7
aI7
aI7
aI7
aI7
aI7
aI7
aI7
aI7
aI7
aI7
aI7
aI7
aI7
aI6
aI6
aI6
aI6
aI6
aI6
aI6
aI11
aI11
aI11
aa(lp372
I4
aI4
aI4
aI4
aI4
aI4
aI4
aI4
aI4
aI4
aI4
aI4
aI4
aI2
aI2
aI2
aI2
aI2
aI2
aI6
aI6
aI6
aI6
aI6
aI6
aI6
aI6
aI6
aI9
aI9
aI9
aI8
aI8
aI8
aa(lp373
I4
aI4
aI4
aI4
aI4
aI4
aI4
aI4
aI4
aI4
aI4
aI4
aI4
aI2
aI2
aI2
aI2
aI2
aI2
aI2
aI2
aI6
aI6
aI6
aI6
aI6
aI6
aI6
aI6
aI6
aI6
aI6
aI6
aI6
aI6
aI9
aI9
aI9
aI8
aI8
aI8
aI9
aa(lp374
I4
aI4
aI4
aI4
aI4
aI4
aI4
aI8
aI8
aI8
aI8
aI2
aI2
aI2
aI2
aI2
aI2
aI2
aI2
aI2
aI2
aI2
aI2
aI2
aI2
aI2
aI6
aI6
aI6
aI6
aI6
aI6
aI6
aI6
aI6
aI6
aa(lp375
I4
aI4
aI4
aI4
aI4
aI4
aI4
aI4
aI4
aI4
aI4
aI4
aI4
aI4
aI4
aI4
aI4
aI4
aI4
aI4
aI4
aI4
aI4
aI4
aI4
aI4
aI4
aI4
aI4
aI4
aI4
aI4
aI4
aI4
aI4
aI4
aI4
aI4
aI2
aI2
aI2
aI2
aI2
aI2
aI6
aI6
aI6
aI6
aI6
aI6
aI6
aI6
aI6
aI6
aI6
aI6
aI9
aI9
aI9
aI8
aI8
aI8
aa(lp376
I4
aI4
aI4
aI8
aI8
aI8
aI8
aI2
aI2
aI2
aI2
aI2
aI2
aI2
aI2
aI2
aI6
aI6
aI6
aI6
aI6
aI6
aI6
aI6
aI6
aI6
aI6
aI9
aI9
aI9
aI5
aI5
aI5
aI5
aa(lp377
I4
aI4
aI4
aI4
aI4
aI4
aI4
aI4
aI8
aI8
aI8
aI8
aI2
aI2
aI2
aI2
aI2
aI2
aI2
aI10
aI10
aI10
aI10
aI10
aI10
aI12
aI12
aI12
aI12
aI12
aI9
aI9
aa(lp378
I4
aI4
aI4
aI4
aI2
aI2
aI2
aI2
aI2
aI10
aI10
aI10
aI12
aI9
aI9
aI8
aI8
aa(lp379
I4
aI4
aI4
aI4
aI4
aI4
aI4
aI4
aI4
aI4
aI4
aI4
aI4
aI4
aI2
aI2
aI2
aI2
aI2
aI2
aI2
aI2
aI2
aI2
aI6
aI6
aI6
aI6
aI6
aI6
aI5
aI5
aI5
aI5
aI8
aI8
aI8
aa(lp380
I4
aI4
aI4
aI4
aI4
aI4
aI4
aI8
aI8
aI8
aI2
aI2
aI2
aI2
aI2
aI2
aI2
aI2
aI6
aI6
aI6
aI6
aI6
aI6
aI6
aI6
aI6
aI5
aI5
aI5
aI11
aI11
aI11
aa(lp381
I4
aI4
aI4
aI4
aI4
aI4
aI4
aI4
aI4
aI4
aI4
aI4
aI4
aI4
aI4
aI8
aI8
aI8
aI8
aI2
aI2
aI2
aI2
aI2
aI2
aI2
aI7
aI7
aI7
aI7
aI7
aI7
aI7
aI7
aI7
aI7
aI7
aI7
aI7
aI7
aI7
aI7
aI7
aI7
aI7
aI7
aI7
aI6
aI6
aI6
aI6
aI12
aI12
aI12
aI9
aI9
aI9
aI9
aI11
aI11
aI11
aI5
aI5
aI5
aa(lp382
I4
aI4
aI4
aI4
aI4
aI4
aI4
aI4
aI4
aI4
aI4
aI4
aI4
aI2
aI2
aI2
aI2
aI2
aI2
aI2
aI6
aI6
aI6
aI6
aI6
aI6
aI6
aI6
aI6
aI12
aI12
aI12
aI12
aI9
aI9
aI8
aI8
aI8
aa(lp383
I4
aI4
aI4
aI4
aI8
aI8
aI8
aI8
aI2
aI2
aI2
aI2
aI2
aI2
aI2
aI7
aI7
aI7
aI7
aI7
aI7
aI7
aI7
aI7
aI7
aI7
aI7
aI7
aI7
aI7
aI7
aI6
aI6
aI6
aI6
aI6
aI6
aI9
aI9
aI9
aI9
aI11
aI11
aI11
aI11
aI11
aI11
aI5
aI5
aI5
aI5
aI5
aa(lp384
I4
aI4
aI4
aI4
aI4
aI4
aI2
aI2
aI2
aI2
aI2
aI2
aI2
aI2
aI2
aI6
aI6
aI6
aI6
aI8
aI8
aI8
aI9
aI9
aI9
aI9
aa(lp385
I4
aI4
aI4
aI4
aI4
aI4
aI4
aI4
aI4
aI4
aI4
aI4
aI4
aI4
aI2
aI2
aI2
aI2
aI2
aI2
aI2
aI2
aI2
aI6
aI6
aI6
aI6
aI6
aI5
aI5
aI5
aI5
aI5
aI8
aI8
aI8
aI8
aI8
aI8
aI11
aI11
aI5
aI5
aI8
aI8
aI9
aI9
aI9
aI9
aa(lp386
I4
aI4
aI4
aI4
aI4
aI4
aI4
aI4
aI4
aI4
aI4
aI4
aI4
aI4
aI4
aI4
aI4
aI4
aI4
aI4
aI8
aI8
aI8
aI8
aI2
aI2
aI2
aI2
aI2
aI6
aI6
aI6
aI6
aI6
aI6
aI6
aI6
aI6
aI6
aI5
aI5
aI5
aI5
aa(lp387
I4
aI4
aI4
aI4
aI4
aI4
aI4
aI2
aI2
aI2
aI2
aI2
aI2
aI2
aI2
aI2
aI2
aI6
aI6
aI6
aI6
aI6
aI6
aI6
aI6
aI6
aI6
aI6
aI9
aI9
aI9
aI8
aI8
aa(lp388
I4
aI4
aI4
aI4
aI4
aI4
aI4
aI4
aI4
aI4
aI4
aI4
aI4
aI8
aI8
aI8
aI8
aI2
aI2
aI2
aI2
aI2
aI2
aI2
aI2
aI2
aI2
aI2
aI2
aI2
aI2
aI2
aI2
aI10
aI10
aI10
aI12
aI12
aI9
aa(lp389
I4
aI4
aI4
aI4
aI4
aI4
aI4
aI4
aI2
aI2
aI2
aI2
aI1
aI1
aI1
aI1
aI0
aI0
aI0
aI0
aI5
aI5
aI5
aI5
aI8
aI8
aI8
aa(lp390
I4
aI4
aI4
aI4
aI8
aI8
aI8
aI8
aI2
aI2
aI2
aI2
aI2
aI2
aI2
aI2
aI2
aI2
aI2
aI1
aI1
aI1
aI0
aI0
aI0
aI0
aI0
aI0
aI0
aI0
aI0
aa(lp391
I4
aI4
aI4
aI4
aI4
aI4
aI4
aI4
aI4
aI4
aI4
aI4
aI4
aI4
aI8
aI8
aI8
aI8
aI2
aI2
aI2
aI2
aI2
aI2
aI2
aa(lp392
I4
aI4
aI4
aI4
aI4
aI4
aI4
aI4
aI4
aI8
aI8
aI8
aI8
aI2
aI2
aI2
aI2
aI2
aI2
aI2
aI2
aI2
aI2
aI6
aI6
aI6
aI6
aI6
aa(lp393
I4
aI4
aI4
aI4
aI4
aI4
aI4
aI4
aI4
aI8
aI8
aI8
aI8
aI2
aI2
aI2
aI2
aI2
aI2
aI2
aI2
aI10
aI10
aI10
aI10
aI10
aI12
aI12
aI9
aI9
aa(lp394
I4
aI4
aI4
aI4
aI4
aI4
aI4
aI4
aI4
aI2
aI2
aI2
aI2
aI2
aI2
aI2
aI2
aI2
aI10
aI10
aI10
aI12
aI9
aI9
aI8
aI8
aa(lp395
I4
aI4
aI4
aI2
aI2
aI2
aI2
aI2
aI2
aI2
aI2
aI10
aI10
aI10
aI12
aI12
aI12
aI12
aI9
aI9
aI8
aI8
aa(lp396
I4
aI4
aI4
aI4
aI4
aI4
aI4
aI4
aI4
aI4
aI4
aI4
aI4
aI4
aI4
aI4
aI4
aI4
aI4
aI4
aI2
aI2
aI2
aI2
aI2
aI2
aI2
aI2
aI2
aI2
aI2
aI2
aI2
aI2
aI2
aI2
aI10
aI10
aI10
aI10
aI10
aI10
aI12
aI9
aI9
aI8
aI8
aa(lp397
I4
aI4
aI4
aI4
aI4
aI4
aI4
aI2
aI2
aI2
aI2
aI2
aI2
aI2
aI2
aI2
aI2
aI2
aI2
aI2
aI2
aI2
aI7
aI7
aI7
aI7
aI7
aI7
aI7
aI7
aI10
aI10
aI10
aI10
aI10
aI8
aI8
aI9
aI9
aI9
aI9
aa(lp398
I4
aI4
aI4
aI2
aI2
aI2
aI2
aI2
aI2
aI2
aI2
aI2
aI10
aI10
aI10
aI10
aI12
aI12
aI12
aI12
aI12
aI12
aI12
aI9
aI9
aI9
aI8
aI8
aI8
aI8
aa(lp399
I4
aI4
aI4
aI4
aI4
aI4
aI2
aI2
aI2
aI2
aI2
aI2
aI2
aI6
aI6
aI6
aI6
aI9
aI9
aI9
aI8
aI8
aa(lp400
I4
aI4
aI4
aI2
aI2
aI2
aI2
aI2
aI2
aI2
aI2
aI2
aI10
aI10
aI10
aI10
aI10
aI10
aI10
aI10
aI10
aI10
aI10
aI10
aI12
aI12
aI12
aI12
aI9
aI9
aI9
aI9
aI8
aI8
aI8
aa(lp401
I4
aI4
aI4
aI4
aI4
aI4
aI4
aI4
aI4
aI4
aI8
aI8
aI8
aI8
aI2
aI2
aI2
aI2
aI2
aI2
aI11
aI11
aI11
aa(lp402
I4
aI4
aI4
aI4
aI4
aI4
aI2
aI2
aI2
aI2
aI2
aI2
aI2
aI2
aI2
aI2
aI2
aI2
aI2
aI2
aI1
aI8
aI8
aI8
aI8
aa(lp403
I7
aI7
aI7
aI7
aI7
aI7
aI7
aI7
aI7
aI7
aI7
aI7
aI7
aI7
aI7
aI2
aI2
aI2
aI2
aI2
aI2
aI9
aI9
aI9
aI9
aI11
aI11
aI11
aI5
aI5
aI5
aI5
aa(lp404
I4
aI4
aI4
aI4
aI4
aI4
aI2
aI2
aI2
aI2
aI2
aI2
aI2
aI2
aI10
aI12
aI8
aI8
aI8
aI8
aa(lp405
I4
aI4
aI4
aI4
aI4
aI4
aI2
aI2
aI2
aI2
aI2
aI2
aI2
aI2
aI2
aI2
aI2
aI2
aI6
aI6
aI6
aI6
aI6
aI6
aI9
aI9
aI9
aI8
aI8
aa(lp406
I4
aI4
aI4
aI4
aI4
aI4
aI4
aI4
aI4
aI2
aI2
aI2
aI2
aI2
aI2
aI2
aI2
aI2
aI2
aI2
aI2
aI2
aI2
aI2
aI2
aI2
aI2
aI2
aI7
aI7
aI7
aI7
aI7
aI7
aI7
aI7
aI7
aI6
aI6
aI6
aI6
aI6
aI6
aI6
aI11
aI11
aI5
aI5
aI8
aI8
aa(lp407
I4
aI4
aI4
aI4
aI4
aI8
aI8
aI8
aI8
aI2
aI2
aI2
aI2
aI2
aI2
aI6
aI6
aI6
aI6
aI6
aI6
aI6
aI6
aI6
aI6
aI6
aI6
aI6
aI5
aI5
aa(lp408
I4
aI4
aI4
aI8
aI8
aI8
aI8
aI2
aI2
aI2
aI2
aI2
aI2
aI2
aI2
aI2
aI10
aI10
aI10
aI12
aI12
aa(lp409
I4
aI4
aI4
aI8
aI8
aI8
aI8
aI2
aI2
aI2
aI2
aI2
aI10
aI10
aI10
aI12
aI12
aI9
aI9
aa(lp410
I4
aI4
aI4
aI4
aI4
aI4
aI4
aI4
aI4
aI4
aI4
aI4
aI4
aI4
aI4
aI4
aI4
aI2
aI2
aI2
aI2
aI2
aI2
aI2
aI2
aI2
aI2
aI2
aI6
aI6
aI6
aI6
aI6
aI6
aI6
aI6
aI6
aI6
aI6
aI6
aI9
aI9
aI9
aI8
aI8
aI8
aa(lp411
I4
aI4
aI4
aI4
aI4
aI4
aI2
aI2
aI2
aI2
aI2
aI2
aI2
aI2
aI10
aI10
aI10
aI10
aI10
aI10
aI12
aI12
aI12
aI12
aI9
aI9
aI8
aI8
aI8
aa(lp412
I4
aI4
aI4
aI4
aI4
aI4
aI4
aI4
aI4
aI4
aI8
aI8
aI8
aI8
aI2
aI2
aI2
aI2
aI2
aI2
aI6
aI6
aI6
aI6
aI6
aI6
aI6
aI6
aI6
aI6
aI9
aI9
aI9
aI5
aI5
aa(lp413
I4
aI4
aI4
aI4
aI4
aI4
aI4
aI4
aI4
aI4
aI4
aI4
aI8
aI8
aI8
aI8
aI2
aI2
aI2
aI2
aI2
aI2
aI2
aI2
aI2
aI6
aI6
aI6
aI6
aI6
aI6
aa(lp414
I4
aI4
aI4
aI4
aI2
aI2
aI2
aI2
aI2
aI2
aI2
aI2
aI2
aI2
aI2
aI8
aI8
aa(lp415
I4
aI4
aI4
aI4
aI4
aI4
aI4
aI2
aI2
aI2
aI2
aI2
aI2
aI2
aI2
aI2
aI2
aI10
aI10
aI10
aI10
aI10
aI12
aI12
aI12
aI12
aI9
aI9
aI8
aI8
aI8
aa(lp416
I4
aI4
aI4
aI4
aI4
aI4
aI4
aI4
aI4
aI4
aI4
aI4
aI4
aI2
aI2
aI2
aI2
aI2
aI2
aI2
aI2
aI10
aI10
aI10
aI12
aI9
aI9
aI8
aI8
aa(lp417
I4
aI4
aI4
aI4
aI4
aI4
aI4
aI4
aI4
aI2
aI2
aI2
aI2
aI2
aI2
aI2
aI2
aI6
aI6
aI6
aI6
aI6
aI6
aI6
aI6
aI6
aI6
aI6
aI9
aI9
aI9
aI8
aI8
aI8
aa(lp418
I4
aI4
aI4
aI4
aI4
aI4
aI4
aI4
aI8
aI8
aI8
aI8
aI2
aI2
aI2
aI2
aI2
aI2
aI2
aI2
aI2
aI6
aI6
aI6
aI6
aI6
aI6
aI6
aI6
aI6
aI6
aI6
aI11
aI11
aI11
aa(lp419
I4
aI4
aI4
aI4
aI4
aI4
aI4
aI4
aI8
aI8
aI8
aI8
aI2
aI2
aI2
aI2
aI2
aI2
aI2
aI2
aI2
aI2
aI2
aI6
aI6
aI6
aI6
aI6
aI6
aI6
aI6
aI6
aI6
aI6
aI6
aI11
aI11
aa(lp420
I4
aI4
aI4
aI4
aI4
aI4
aI2
aI2
aI2
aI2
aI2
aI2
aI2
aI2
aI2
aI2
aI2
aI2
aI2
aI6
aI6
aI6
aI6
aI6
aI6
aI6
aI6
aI6
aI6
aI6
aI6
aI6
aI6
aI6
aI6
aI6
aI9
aI9
aI9
aI8
aI8
aI8
aa(lp421
I4
aI4
aI4
aI4
aI4
aI4
aI4
aI4
aI4
aI4
aI4
aI4
aI4
aI4
aI4
aI4
aI4
aI4
aI4
aI4
aI8
aI8
aI8
aI8
aI2
aI2
aI2
aI2
aI2
aI2
aI10
aI10
aI10
aI10
aI10
aI10
aI10
aI10
aI10
aI12
aI12
aI9
aI9
aa(lp422
I4
aI4
aI4
aI4
aI4
aI4
aI4
aI4
aI4
aI4
aI4
aI4
aI2
aI2
aI2
aI2
aI2
aI11
aI11
aI11
aI11
aI5
aI5
aI8
aI8
aa(lp423
I4
aI4
aI4
aI4
aI2
aI2
aI2
aI2
aI2
aI2
aI2
aI2
aI2
aI2
aI2
aI2
aI2
aI2
aI2
aI1
aI1
aI1
aI1
aI1
aI0
aI0
aI0
aI0
aI5
aI5
aI5
aI5
aI8
aI8
aI8
aa(lp424
I4
aI4
aI4
aI4
aI8
aI8
aI8
aI8
aI2
aI2
aI2
aI2
aI11
aI11
aI5
aI5
aI5
aa(lp425
I4
aI4
aI4
aI4
aI4
aI4
aI4
aI4
aI8
aI8
aI8
aI8
aI2
aI2
aI2
aI2
aI2
aI2
aI2
aI2
aI2
aI2
aI6
aI6
aI6
aI6
aI6
aI6
aI6
aI6
aI6
aI6
aI6
aI6
aI9
aI9
aI9
aI9
aa(lp426
I4
aI4
aI4
aI4
aI4
aI4
aI4
aI4
aI4
aI4
aI4
aI4
aI4
aI4
aI4
aI4
aI4
aI4
aI4
aI4
aI2
aI2
aI2
aI2
aI2
aI2
aI2
aI9
aI9
aI9
aI9
aI11
aI11
aI5
aI8
aI8
aa(lp427
I4
aI4
aI4
aI4
aI4
aI4
aI4
aI4
aI4
aI4
aI4
aI4
aI4
aI2
aI2
aI2
aI2
aI2
aI2
aI2
aI2
aI11
aI11
aI5
aI5
aI5
aI5
aI8
aI8
aa(lp428
I4
aI4
aI4
aI4
aI4
aI4
aI4
aI4
aI4
aI4
aI4
aI4
aI2
aI2
aI2
aI2
aI2
aI2
aI2
aI3
aI3
aI8
aI8
aa(lp429
I4
aI4
aI4
aI4
aI4
aI4
aI2
aI2
aI2
aI2
aI3
aI3
aI3
aI3
aI3
aI3
aI9
aI9
aI9
aI8
aI8
aa(lp430
I4
aI4
aI4
aI2
aI2
aI2
aI2
aI2
aI2
aI2
aI10
aI10
aI10
aI12
aI9
aI9
aI9
aI9
aI8
aI8
aa(lp431
I4
aI4
aI4
aI4
aI4
aI4
aI2
aI2
aI2
aI2
aI2
aI2
aI2
aI2
aI2
aI2
aI2
aI2
aI10
aI10
aI10
aI10
aI8
aI8
aI3
aI3
aa(lp432
I4
aI4
aI4
aI4
aI4
aI4
aI4
aI4
aI4
aI4
aI4
aI4
aI4
aI2
aI2
aI2
aI2
aI2
aI10
aI10
aI12
aI12
aI12
aI12
aI12
aI9
aI9
aI9
aI8
aI8
aI8
aI8
aI8
aa(lp433
I4
aI4
aI4
aI8
aI8
aI8
aI8
aI2
aI2
aI2
aI2
aI2
aI2
aI2
aI2
aI10
aI10
aI10
aI12
aI12
aI9
aI9
aa(lp434
I4
aI4
aI4
aI4
aI8
aI8
aI8
aI8
aI2
aI2
aI2
aI2
aI2
aI2
aI2
aI2
aI2
aI7
aI7
aI7
aI7
aI7
aI7
aI7
aI7
aI7
aI7
aI7
aI7
aI7
aI7
aI7
aI7
aI7
aI7
aI7
aI7
aI7
aI6
aI6
aI6
aI6
aI6
aI6
aI6
aI6
aI11
aI11
aI11
aI11
aI5
aI5
aI5
aI5
aa(lp435
I4
aI4
aI4
aI2
aI2
aI2
aI2
aI2
aI2
aI2
aI2
aI2
aI2
aI10
aI10
aI10
aI10
aI10
aI10
aI10
aI10
aI12
aI12
aI12
aI12
aI12
aI12
aI12
aI12
aI9
aI9
aI9
aI8
aI8
aI8
aI8
aI8
aa(lp436
I0
aI0
aI0
aI2
aI2
aI2
aI2
aI2
aI2
aI2
aI2
aI2
aI2
aI5
aI5
aI5
aI5
aa(lp437
I4
aI4
aI4
aI4
aI4
aI4
aI4
aI4
aI8
aI8
aI8
aI8
aI2
aI2
aI2
aI10
aI10
aI10
aI12
aI12
aI9
aI9
aa(lp438
I4
aI4
aI4
aI4
aI8
aI8
aI8
aI8
aI2
aI2
aI2
aI2
aI2
aI2
aI2
aI2
aI2
aI5
aI5
aI5
aI5
aI11
aI11
aa(lp439
I4
aI4
aI4
aI4
aI4
aI4
aI4
aI4
aI4
aI4
aI2
aI2
aI2
aI2
aI2
aI2
aI2
aI2
aI2
aI2
aI2
aI2
aI10
aI10
aI10
aI10
aI10
aI12
aI12
aI12
aI12
aI12
aI12
aI12
aI8
aI8
aI9
aI9
aI9
aI9
aa(lp440
I4
aI4
aI4
aI4
aI4
aI4
aI4
aI4
aI4
aI4
aI4
aI4
aI4
aI2
aI2
aI2
aI2
aI2
aI2
aI2
aI2
aI2
aI2
aI2
aI2
aI6
aI6
aI6
aI6
aI6
aI6
aI6
aI9
aI9
aI9
aI8
aI8
aa(lp441
I4
aI4
aI4
aI4
aI4
aI4
aI4
aI4
aI4
aI4
aI4
aI4
aI4
aI8
aI8
aI8
aI8
aI2
aI2
aI2
aI2
aI6
aI6
aI6
aI6
aI6
aI6
aI6
aI6
aI6
aI6
aI6
aI6
aI6
aI5
aI5
aa(lp442
I4
aI4
aI4
aI4
aI4
aI4
aI4
aI4
aI8
aI8
aI8
aI8
aI2
aI2
aI2
aI2
aI2
aI2
aI2
aI2
aI2
aI2
aI2
aI2
aI2
aI2
aI2
aI2
aI10
aI10
aI10
aI12
aI12
aI9
aI9
aa(lp443
I4
aI4
aI4
aI8
aI8
aI8
aI8
aI2
aI2
aI2
aI2
aI2
aI1
aI1
aI1
aI1
aI1
aI1
aI0
aI0
aI0
aI0
aI0
aI0
aa(lp444
I4
aI4
aI4
aI4
aI8
aI8
aI8
aI8
aI2
aI2
aI2
aI2
aI2
aI2
aI2
aI2
aI11
aI11
aI11
aI11
aI11
aI5
aI5
aI5
aI5
aa(lp445
I4
aI4
aI4
aI4
aI4
aI4
aI4
aI4
aI2
aI2
aI2
aI2
aI2
aI2
aI7
aI7
aI7
aI7
aI7
aI7
aI7
aI7
aI7
aI7
aI6
aI6
aI6
aI6
aI6
aI6
aI6
aI6
aI6
aI9
aI9
aI11
aI11
aI11
aI11
aI5
aI5
aI5
aI8
aI8
aa(lp446
I4
aI4
aI4
aI4
aI4
aI4
aI4
aI4
aI4
aI4
aI8
aI8
aI2
aI2
aI2
aI2
aI2
aI2
aI2
aI2
aI2
aI2
aI10
aI10
aI12
aI12
aI12
aI12
aI9
aa(lp447
I4
aI4
aI4
aI8
aI8
aI8
aI8
aI2
aI2
aI2
aI2
aI2
aI2
aI2
aI2
aI2
aI2
aI2
aI2
aI2
aI2
aI1
aI1
aI0
aI0
aI0
aa(lp448
I4
aI4
aI4
aI4
aI4
aI4
aI4
aI4
aI2
aI2
aI2
aI2
aI2
aI6
aI6
aI6
aI6
aI6
aI6
aI6
aI6
aI6
aI6
aI6
aI6
aI6
aI6
aI6
aI6
aI9
aI9
aI9
aI9
aI8
aI8
aa(lp449
I4
aI4
aI4
aI4
aI4
aI4
aI4
aI4
aI4
aI4
aI8
aI8
aI8
aI8
aI2
aI2
aI2
aI2
aI2
aI2
aI2
aI6
aI6
aI6
aI6
aI6
aI6
aI6
aI6
aI6
aI6
aI6
aI6
aI6
aI6
aI6
aa(lp450
I4
aI4
aI4
aI4
aI4
aI4
aI4
aI4
aI4
aI4
aI4
aI4
aI4
aI4
aI2
aI2
aI2
aI2
aI2
aI6
aI6
aI6
aI6
aI6
aI6
aI6
aI6
aI6
aI6
aI6
aI9
aI9
aI9
aI8
aI8
aI8
aa(lp451
I4
aI4
aI4
aI4
aI4
aI4
aI4
aI4
aI4
aI4
aI4
aI2
aI2
aI2
aI2
aI2
aI2
aI2
aI11
aI11
aI11
aI8
aI8
aa(lp452
I4
aI4
aI4
aI4
aI4
aI4
aI4
aI4
aI4
aI4
aI4
aI4
aI4
aI4
aI4
aI4
aI4
aI4
aI2
aI2
aI2
aI2
aI2
aI2
aI2
aI2
aI6
aI6
aI6
aI6
aI6
aI6
aI6
aI6
aI6
aI6
aI6
aI6
aI6
aI6
aI8
aI8
aa(lp453
I4
aI4
aI4
aI4
aI4
aI2
aI2
aI2
aI2
aI2
aI2
aI6
aI6
aa(lp454
I4
aI4
aI4
aI8
aI8
aI8
aI8
aI2
aI2
aI11
aI11
aI11
aI11
aI5
aI5
aI5
aa(lp455
I4
aI4
aI4
aI4
aI4
aI4
aI4
aI4
aI4
aI4
aI4
aI4
aI8
aI8
aI8
aI8
aI2
aI2
aI2
aI2
aI2
aI2
aI2
aI2
aI2
aI2
aI2
aI2
aI6
aI6
aI6
aI12
aI12
aI9
aI9
aa(lp456
I4
aI4
aI8
aI8
aI8
aI8
aI2
aI2
aI2
aI2
aI2
aI2
aI2
aI2
aI2
aI2
aI2
aI10
aI10
aI10
aI10
aI10
aI10
aI10
aI3
aI3
aI3
aa(lp457
I4
aI4
aI4
aI4
aI4
aI4
aI4
aI8
aI8
aI8
aI2
aI2
aI2
aI2
aI2
aI2
aI2
aI2
aI2
aI2
aI10
aI10
aI10
aI12
aI12
aI12
aI12
aI9
aI9
aI9
aI9
aa(lp458
I4
aI4
aI4
aI4
aI4
aI4
aI4
aI2
aI2
aI2
aI2
aI2
aI2
aI2
aI10
aI10
aI10
aI10
aI10
aI10
aI12
aI12
aI12
aI12
aI9
aI9
aI8
aI8
aI8
aa(lp459
I0
aI0
aI0
aI0
aI2
aI2
aI2
aI2
aI2
aI2
aI5
aI5
aI5
aI5
aI8
aI8
aa(lp460
I4
aI4
aI4
aI4
aI4
aI4
aI4
aI4
aI4
aI4
aI4
aI4
aI4
aI4
aI4
aI4
aI2
aI2
aI2
aI2
aI2
aI2
aI2
aI2
aI2
aI6
aI6
aI6
aI6
aI6
aI6
aI6
aI6
aI6
aI6
aI6
aI9
aI9
aI9
aI8
aI8
aI8
aa(lp461
I4
aI4
aI4
aI4
aI2
aI2
aI2
aI2
aI6
aI6
aI6
aI6
aI12
aI12
aI12
aI8
aI8
aI8
aI8
aI8
aI9
aI9
aa(lp462
I4
aI4
aI4
aI8
aI8
aI8
aI8
aI2
aI2
aI2
aI2
aI2
aI2
aI2
aI2
aI2
aI2
aI2
aI2
aI6
aI6
aI6
aI6
aI6
aI6
aI6
aI6
aI6
aI6
aI6
aI6
aI6
aI6
aa(lp463
I4
aI4
aI4
aI8
aI8
aI8
aI8
aI2
aI2
aI2
aI2
aI2
aI2
aI2
aI2
aI2
aI2
aI2
aI2
aI10
aI10
aI10
aI10
aI10
aI12
aa(lp464
I4
aI4
aI4
aI8
aI8
aI8
aI8
aI2
aI2
aI2
aI2
aI2
aI2
aI2
aI2
aI2
aI2
aI6
aI6
aI6
aI6
aI6
aI6
aI6
aI6
aI6
aI6
aI9
aI9
aI9
aI9
aI11
aI11
aI11
aI5
aI5
aI5
aI5
aa(lp465
I4
aI4
aI4
aI2
aI2
aI2
aI2
aI2
aI10
aI10
aI10
aI12
aI12
aI8
aI8
aa(lp466
I4
aI4
aI4
aI4
aI4
aI4
aI2
aI2
aI2
aI2
aI2
aI2
aI2
aI6
aI6
aI6
aI6
aI6
aI6
aI6
aI6
aI9
aI9
aI9
aI8
aI8
aa(lp467
I4
aI4
aI4
aI4
aI4
aI4
aI4
aI4
aI8
aI8
aI8
aI8
aI2
aI2
aI2
aI2
aI2
aI2
aI2
aI1
aI1
aI1
aI1
aI0
aI0
aI0
aI0
aI0
aI0
aI0
aI0
aa(lp468
I4
aI4
aI4
aI4
aI4
aI4
aI4
aI4
aI4
aI2
aI2
aI2
aI2
aI2
aI2
aI2
aI2
aI2
aI2
aI2
aI2
aI6
aI6
aI6
aI9
aI9
aI9
aI9
aI8
aI8
aa(lp469
I4
aI4
aI4
aI8
aI8
aI8
aI8
aI2
aI2
aI2
aI2
aI2
aI2
aI2
aI10
aI10
aI12
aI12
aI12
aI12
aI12
aI9
aI9
aa(lp470
I4
aI4
aI4
aI4
aI4
aI4
aI4
aI4
aI4
aI8
aI8
aI8
aI8
aI2
aI2
aI2
aI2
aI2
aI2
aI10
aI10
aI10
aI10
aI10
aI12
aI12
aI12
aI12
aI12
aI12
aI12
aI9
aI9
aa(lp471
I4
aI4
aI4
aI4
aI8
aI8
aI8
aI8
aI2
aI2
aI2
aI2
aI2
aI2
aI2
aI6
aI6
aI6
aI12
aI12
aI12
aI12
aI12
aI9
aI9
aa(lp472
I4
aI4
aI4
aI4
aI4
aI4
aI4
aI4
aI4
aI4
aI8
aI8
aI8
aI2
aI2
aI2
aI2
aI2
aI2
aI2
aI2
aI10
aI10
aI10
aI10
aI9
aI9
aI9
aa(lp473
I4
aI4
aI4
aI4
aI4
aI4
aI2
aI2
aI2
aI2
aI2
aI2
aI2
aI2
aI2
aI2
aI2
aI2
aI2
aI2
aI2
aI6
aI6
aI6
aI6
aI6
aI6
aI6
aI6
aI6
aI6
aI6
aI6
aI6
aI12
aI12
aI12
aI12
aI9
aI9
aI9
aI9
aI8
aI8
aa(lp474
I4
aI4
aI4
aI4
aI4
aI4
aI4
aI4
aI4
aI4
aI2
aI2
aI2
aI2
aI2
aI2
aI10
aI10
aI10
aI10
aI10
aI12
aI12
aI12
aI12
aI12
aI9
aI9
aI8
aI8
aa(lp475
I4
aI4
aI4
aI2
aI2
aI2
aI2
aI2
aI2
aI2
aI2
aI2
aI2
aI2
aI2
aI2
aI2
aI10
aI10
aI10
aI10
aI10
aI10
aI9
aI9
aI9
aI9
aI8
aI8
aa(lp476
I4
aI4
aI4
aI4
aI4
aI4
aI2
aI2
aI2
aI2
aI2
aI2
aI10
aI10
aI10
aI10
aI12
aI9
aI9
aI8
aI8
aI8
aa(lp477
I4
aI4
aI4
aI4
aI8
aI8
aI8
aI8
aI2
aI2
aI2
aI2
aI2
aI2
aI2
aI2
aI2
aI2
aI2
aI2
aI2
aI7
aI7
aI7
aI7
aI7
aI7
aI7
aI7
aI7
aI7
aI7
aI7
aI7
aI7
aI7
aI7
aI7
aI7
aI6
aI6
aI6
aI6
aI6
aI6
aI6
aI6
aI6
aI6
aI6
aI6
aI5
aI5
aI5
aI11
aI11
aI11
aI11
aI9
aI9
aI9
aa(lp478
I4
aI4
aI4
aI4
aI4
aI4
aI2
aI2
aI2
aI2
aI2
aI2
aI2
aI2
aI2
aI2
aI6
aI6
aI6
aI6
aI6
aI6
aI6
aI6
aI7
aI7
aI7
aI7
aI7
aI7
aI7
aI7
aI9
aI9
aI9
aI9
aI11
aI11
aI11
aI8
aI8
aa(lp479
I4
aI4
aI4
aI4
aI4
aI8
aI8
aI8
aI8
aI2
aI2
aI2
aI2
aI2
aI3
aI3
aI3
aI10
aI10
aI10
aI10
aI10
aI10
aI10
aI10
aI10
aI10
aI10
aa(lp480
I4
aI4
aI4
aI4
aI2
aI2
aI2
aI2
aI2
aI2
aI2
aI10
aI10
aI10
aI10
aI10
aI10
aI10
aI12
aI9
aI9
aI8
aI8
aa(lp481
I4
aI4
aI4
aI4
aI4
aI4
aI4
aI4
aI4
aI4
aI4
aI4
aI4
aI4
aI4
aI4
aI4
aI4
aI4
aI4
aI4
aI4
aI4
aI4
aI4
aI4
aI4
aI4
aI4
aI4
aI4
aI4
aI4
aI4
aI4
aI4
aI4
aI4
aI4
aI4
aI4
aI4
aI4
aI4
aI4
aI4
aI4
aI4
aI4
aI4
aI4
aI4
aI4
aI4
aI2
aI2
aI2
aI2
aI2
aI2
aI2
aI2
aI2
aI2
aI2
aI2
aI2
aI2
aI2
aI2
aI2
aI2
aI2
aI10
aI10
aI10
aI10
aI10
aI10
aI10
aI12
aI9
aI9
aI8
aI8
aa(lp482
I4
aI4
aI4
aI4
aI4
aI4
aI4
aI4
aI2
aI2
aI2
aI2
aI2
aI2
aI2
aI2
aI2
aI2
aI1
aI1
aI1
aI1
aI0
aI0
aI0
aI8
aI8
aa(lp483
I4
aI4
aI4
aI4
aI4
aI4
aI4
aI4
aI8
aI8
aI8
aI8
aI2
aI2
aI2
aI2
aI2
aI2
aI2
aI2
aI2
aI2
aI2
aI10
aI10
aI10
aI10
aI10
aI10
aI10
aI10
aI12
aI12
aI9
aI9
aa(lp484
I4
aI4
aI4
aI4
aI2
aI2
aI2
aI2
aI2
aI2
aI2
aI2
aI2
aI2
aI2
aI2
aI6
aI6
aI6
aI6
aI6
aI6
aI6
aI6
aI6
aI6
aI11
aI11
aI5
aI5
aI8
aI8
aa(lp485
I4
aI4
aI4
aI8
aI8
aI8
aI8
aI2
aI2
aI2
aI2
aI2
aI2
aI10
aI10
aI10
aI12
aI12
aI9
aI9
aa(lp486
I4
aI4
aI4
aI8
aI8
aI8
aI8
aI2
aI2
aI2
aI2
aI2
aI2
aI2
aI10
aI10
aI10
aI10
aI10
aI12
aI12
aI9
aI9
aa(lp487
I4
aI4
aI4
aI4
aI4
aI4
aI4
aI2
aI2
aI2
aI2
aI2
aI2
aI2
aI2
aI2
aI2
aI2
aI10
aI10
aI10
aI12
aI12
aI12
aI12
aI9
aI9
aI9
aI9
aI8
aI8
aa(lp488
I4
aI4
aI4
aI2
aI2
aI2
aI2
aI2
aI2
aI2
aI2
aI2
aI2
aI8
aI8
aI10
aI10
aI10
aI10
aI10
aI3
aI3
aI3
aa(lp489
I4
aI4
aI4
aI2
aI2
aI2
aI2
aI2
aI2
aI2
aI2
aI6
aI6
aI6
aI6
aI6
aI6
aI6
aI6
aI6
aI6
aI6
aI6
aI6
aI12
aI12
aI6
aI6
aI6
aI6
aI6
aI6
aI6
aI9
aI9
aI9
aI11
aI11
aI8
aI8
aI8
aa(lp490
I4
aI4
aI4
aI4
aI4
aI4
aI4
aI4
aI4
aI4
aI2
aI2
aI2
aI2
aI2
aI2
aI2
aI2
aI2
aI2
aI2
aI2
aI10
aI10
aI10
aI10
aI10
aI10
aI10
aI12
aI12
aI12
aI12
aI9
aI9
aI8
aI8
aI8
aa(lp491
I4
aI4
aI4
aI4
aI2
aI2
aI2
aI2
aI2
aI2
aI2
aI10
aI10
aI10
aI10
aI12
aI9
aI9
aI8
aI8
aa(lp492
I4
aI4
aI4
aI4
aI4
aI4
aI4
aI4
aI8
aI8
aI8
aI8
aI2
aI2
aI2
aI2
aI2
aI2
aI2
aI2
aI2
aI2
aI2
aI2
aI2
aI2
aI2
aI2
aI6
aI6
aI6
aI6
aI6
aI6
aI6
aI6
aI6
aI6
aI6
aI6
aI9
aI9
aI9
aI9
aI5
aI5
aI5
aI5
aI11
aI11
aI11
aa(lp493
I4
aI4
aI4
aI4
aI4
aI4
aI4
aI2
aI2
aI2
aI2
aI2
aI2
aI2
aI6
aI6
aI6
aI6
aI6
aI6
aI6
aI6
aI6
aI6
aI6
aI6
aI6
aI6
aI6
aI8
aI8
aI8
aa(lp494
I4
aI4
aI4
aI4
aI4
aI2
aI2
aI2
aI2
aI2
aI2
aI2
aI2
aI2
aI2
aI2
aI2
aI2
aI10
aI10
aI10
aI10
aI10
aI8
aI8
aI8
aI8
aa(lp495
I4
aI4
aI4
aI4
aI4
aI4
aI4
aI4
aI4
aI4
aI2
aI2
aI2
aI2
aI2
aI2
aI2
aI2
aI2
aI2
aI2
aI2
aI2
aI2
aI6
aI6
aI6
aI12
aI12
aI12
aI12
aI12
aI8
aI8
aI8
aa(lp496
I4
aI4
aI4
aI4
aI4
aI4
aI4
aI8
aI8
aI8
aI2
aI2
aI2
aI2
aI2
aI2
aI2
aI2
aI7
aI7
aI7
aI7
aI7
aI7
aI7
aI7
aI7
aI7
aI7
aI7
aI7
aI7
aI6
aI6
aI6
aI6
aI6
aI9
aI9
aI9
aI9
aI5
aI5
aI11
aI11
aa(lp497
I4
aI4
aI4
aI4
aI4
aI4
aI4
aI4
aI4
aI4
aI4
aI4
aI4
aI8
aI8
aI8
aI8
aI2
aI2
aI2
aI2
aI2
aI2
aI2
aI10
aI10
aI10
aI10
aI10
aI10
aI12
aI12
aI9
aI9
aa(lp498
I4
aI4
aI4
aI4
aI4
aI4
aI4
aI4
aI4
aI8
aI8
aI8
aI8
aI2
aI2
aI2
aI2
aI2
aI2
aI2
aI2
aI6
aI6
aI6
aI6
aI6
aI6
aI6
aI6
aI6
aI6
aI6
aI6
aI6
aI9
aI9
aI9
aI5
aI5
aI5
aI5
aa(lp499
I4
aI4
aI4
aI4
aI4
aI4
aI4
aI4
aI4
aI4
aI4
aI4
aI4
aI4
aI4
aI4
aI4
aI2
aI2
aI2
aI2
aI2
aI7
aI7
aI7
aI7
aI7
aI7
aI7
aI7
aI7
aI7
aI7
aI7
aI6
aI6
aI6
aI6
aI6
aI6
aI6
aI6
aI6
aI6
aI6
aI6
aI8
aI8
aa(lp500
I4
aI4
aI4
aI4
aI4
aI4
aI4
aI2
aI2
aI2
aI2
aI2
aI2
aI2
aI10
aI10
aI10
aI12
aI12
aI12
aI12
aI9
aI9
aI8
aI8
aa.